	.file	"fp4_standalone.hip"
	.text
	.globl	__device_stub__fp4_lds_opt      # -- Begin function __device_stub__fp4_lds_opt
	.p2align	4
	.type	__device_stub__fp4_lds_opt,@function
__device_stub__fp4_lds_opt:             # @__device_stub__fp4_lds_opt
	.cfi_startproc
# %bb.0:
	subq	$168, %rsp
	.cfi_def_cfa_offset 176
	movq	%rdi, 88(%rsp)
	movq	%rsi, 80(%rsp)
	movq	%rdx, 72(%rsp)
	movq	%rcx, 64(%rsp)
	movq	%r8, 56(%rsp)
	movl	%r9d, 4(%rsp)
	leaq	88(%rsp), %rax
	movq	%rax, 96(%rsp)
	leaq	80(%rsp), %rax
	movq	%rax, 104(%rsp)
	leaq	72(%rsp), %rax
	movq	%rax, 112(%rsp)
	leaq	64(%rsp), %rax
	movq	%rax, 120(%rsp)
	leaq	56(%rsp), %rax
	movq	%rax, 128(%rsp)
	leaq	4(%rsp), %rax
	movq	%rax, 136(%rsp)
	leaq	176(%rsp), %rax
	movq	%rax, 144(%rsp)
	leaq	184(%rsp), %rax
	movq	%rax, 152(%rsp)
	leaq	40(%rsp), %rdi
	leaq	24(%rsp), %rsi
	leaq	16(%rsp), %rdx
	leaq	8(%rsp), %rcx
	callq	__hipPopCallConfiguration
	movq	40(%rsp), %rsi
	movl	48(%rsp), %edx
	movq	24(%rsp), %rcx
	movl	32(%rsp), %r8d
	leaq	96(%rsp), %r9
	movl	$fp4_lds_opt, %edi
	pushq	8(%rsp)
	.cfi_adjust_cfa_offset 8
	pushq	24(%rsp)
	.cfi_adjust_cfa_offset 8
	callq	hipLaunchKernel
	addq	$184, %rsp
	.cfi_adjust_cfa_offset -184
	retq
.Lfunc_end0:
	.size	__device_stub__fp4_lds_opt, .Lfunc_end0-__device_stub__fp4_lds_opt
	.cfi_endproc
                                        # -- End function
	.globl	main                            # -- Begin function main
	.p2align	4
	.type	main,@function
main:                                   # @main
	.cfi_startproc
# %bb.0:
	xorl	%eax, %eax
	retq
.Lfunc_end1:
	.size	main, .Lfunc_end1-main
	.cfi_endproc
                                        # -- End function
	.p2align	4                               # -- Begin function __hip_module_ctor
	.type	__hip_module_ctor,@function
__hip_module_ctor:                      # @__hip_module_ctor
	.cfi_startproc
# %bb.0:
	subq	$40, %rsp
	.cfi_def_cfa_offset 48
	movq	__hip_gpubin_handle_33e1a9c3232aa6e5(%rip), %rdi
	testq	%rdi, %rdi
	jne	.LBB2_2
# %bb.1:
	movl	$__hip_fatbin_wrapper, %edi
	callq	__hipRegisterFatBinary
	movq	%rax, %rdi
	movq	%rax, __hip_gpubin_handle_33e1a9c3232aa6e5(%rip)
.LBB2_2:
	xorps	%xmm0, %xmm0
	movups	%xmm0, 16(%rsp)
	movups	%xmm0, (%rsp)
	movl	$fp4_lds_opt, %esi
	movl	$.L__unnamed_1, %edx
	movl	$.L__unnamed_1, %ecx
	movl	$-1, %r8d
	xorl	%r9d, %r9d
	callq	__hipRegisterFunction
	movl	$__hip_module_dtor, %edi
	addq	$40, %rsp
	.cfi_def_cfa_offset 8
	jmp	atexit                          # TAILCALL
.Lfunc_end2:
	.size	__hip_module_ctor, .Lfunc_end2-__hip_module_ctor
	.cfi_endproc
                                        # -- End function
	.p2align	4                               # -- Begin function __hip_module_dtor
	.type	__hip_module_dtor,@function
__hip_module_dtor:                      # @__hip_module_dtor
	.cfi_startproc
# %bb.0:
	movq	__hip_gpubin_handle_33e1a9c3232aa6e5(%rip), %rdi
	testq	%rdi, %rdi
	je	.LBB3_2
# %bb.1:
	pushq	%rax
	.cfi_def_cfa_offset 16
	callq	__hipUnregisterFatBinary
	movq	$0, __hip_gpubin_handle_33e1a9c3232aa6e5(%rip)
	addq	$8, %rsp
	.cfi_def_cfa_offset 8
.LBB3_2:
	retq
.Lfunc_end3:
	.size	__hip_module_dtor, .Lfunc_end3-__hip_module_dtor
	.cfi_endproc
                                        # -- End function
	.type	fp4_lds_opt,@object             # @fp4_lds_opt
	.section	.rodata,"a",@progbits
	.globl	fp4_lds_opt
	.p2align	3, 0x0
fp4_lds_opt:
	.quad	__device_stub__fp4_lds_opt
	.size	fp4_lds_opt, 8

	.type	.L__unnamed_1,@object           # @0
	.section	.rodata.str1.1,"aMS",@progbits,1
.L__unnamed_1:
	.asciz	"fp4_lds_opt"
	.size	.L__unnamed_1, 12

	.type	.L__unnamed_2,@object           # @1
	.section	.hip_fatbin,"a",@progbits
	.p2align	12, 0x0
.L__unnamed_2:
	.asciz	"__CLANG_OFFLOAD_BUNDLE__\002\000\000\000\000\000\000\000\000\020\000\000\000\000\000\000\000\000\000\000\000\000\000\000\036\000\000\000\000\000\000\000host-x86_64-unknown-linux-gnu-\000\020\000\000\000\000\000\000\320\"\000\000\000\000\000\000\037\000\000\000\000\000\000\000hipv4-amdgcn-amd-amdhsa--gfx950\000\000\000\000\000\000\000\000\000\000\000\000\000\000\000\000\000\000\000\000\000\000\000\000\000\000\000\000\000\000\000\000\000\000\000\000\000\000\000\000\000\000\000\000\000\000\000\000\000\000\000\000\000\000\000\000\000\000\000\000\000\000\000\000\000\000\000\000\000\000\000\000\000\000\000\000\000\000\000\000\000\000\000\000\000\000\000\000\000\000\000\000\000\000\000\000\000\000\000\000\000\000\000\000\000\000\000\000\000\000\000\000\000\000\000\000\000\000\000\000\000\000\000\000\000\000\000\000\000\000\000\000\000\000\000\000\000\000\000\000\000\000\000\000\000\000\000\000\000\000\000\000\000\000\000\000\000\000\000\000\000\000\000\000\000\000\000\000\000\000\000\000\000\000\000\000\000\000\000\000\000\000\000\000\000\000\000\000\000\000\000\000\000\000\000\000\000\000\000\000\000\000\000\000\000\000\000\000\000\000\000\000\000\000\000\000\000\000\000\000\000\000\000\000\000\000\000\000\000\000\000\000\000\000\000\000\000\000\000\000\000\000\000\000\000\000\000\000\000\000\000\000\000\000\000\000\000\000\000\000\000\000\000\000\000\000\000\000\000\000\000\000\000\000\000\000\000\000\000\000\000\000\000\000\000\000\000\000\000\000\000\000\000\000\000\000\000\000\000\000\000\000\000\000\000\000\000\000\000\000\000\000\000\000\000\000\000\000\000\000\000\000\000\000\000\000\000\000\000\000\000\000\000\000\000\000\000\000\000\000\000\000\000\000\000\000\000\000\000\000\000\000\000\000\000\000\000\000\000\000\000\000\000\000\000\000\000\000\000\000\000\000\000\000\000\000\000\000\000\000\000\000\000\000\000\000\000\000\000\000\000\000\000\000\000\000\000\000\000\000\000\000\000\000\000\000\000\000\000\000\000\000\000\000\000\000\000\000\000\000\000\000\000\000\000\000\000\000\000\000\000\000\000\000\000\000\000\000\000\000\000\000\000\000\000\000\000\000\000\000\000\000\000\000\000\000\000\000\000\000\000\000\000\000\000\000\000\000\000\000\000\000\000\000\000\000\000\000\000\000\000\000\000\000\000\000\000\000\000\000\000\000\000\000\000\000\000\000\000\000\000\000\000\000\000\000\000\000\000\000\000\000\000\000\000\000\000\000\000\000\000\000\000\000\000\000\000\000\000\000\000\000\000\000\000\000\000\000\000\000\000\000\000\000\000\000\000\000\000\000\000\000\000\000\000\000\000\000\000\000\000\000\000\000\000\000\000\000\000\000\000\000\000\000\000\000\000\000\000\000\000\000\000\000\000\000\000\000\000\000\000\000\000\000\000\000\000\000\000\000\000\000\000\000\000\000\000\000\000\000\000\000\000\000\000\000\000\000\000\000\000\000\000\000\000\000\000\000\000\000\000\000\000\000\000\000\000\000\000\000\000\000\000\000\000\000\000\000\000\000\000\000\000\000\000\000\000\000\000\000\000\000\000\000\000\000\000\000\000\000\000\000\000\000\000\000\000\000\000\000\000\000\000\000\000\000\000\000\000\000\000\000\000\000\000\000\000\000\000\000\000\000\000\000\000\000\000\000\000\000\000\000\000\000\000\000\000\000\000\000\000\000\000\000\000\000\000\000\000\000\000\000\000\000\000\000\000\000\000\000\000\000\000\000\000\000\000\000\000\000\000\000\000\000\000\000\000\000\000\000\000\000\000\000\000\000\000\000\000\000\000\000\000\000\000\000\000\000\000\000\000\000\000\000\000\000\000\000\000\000\000\000\000\000\000\000\000\000\000\000\000\000\000\000\000\000\000\000\000\000\000\000\000\000\000\000\000\000\000\000\000\000\000\000\000\000\000\000\000\000\000\000\000\000\000\000\000\000\000\000\000\000\000\000\000\000\000\000\000\000\000\000\000\000\000\000\000\000\000\000\000\000\000\000\000\000\000\000\000\000\000\000\000\000\000\000\000\000\000\000\000\000\000\000\000\000\000\000\000\000\000\000\000\000\000\000\000\000\000\000\000\000\000\000\000\000\000\000\000\000\000\000\000\000\000\000\000\000\000\000\000\000\000\000\000\000\000\000\000\000\000\000\000\000\000\000\000\000\000\000\000\000\000\000\000\000\000\000\000\000\000\000\000\000\000\000\000\000\000\000\000\000\000\000\000\000\000\000\000\000\000\000\000\000\000\000\000\000\000\000\000\000\000\000\000\000\000\000\000\000\000\000\000\000\000\000\000\000\000\000\000\000\000\000\000\000\000\000\000\000\000\000\000\000\000\000\000\000\000\000\000\000\000\000\000\000\000\000\000\000\000\000\000\000\000\000\000\000\000\000\000\000\000\000\000\000\000\000\000\000\000\000\000\000\000\000\000\000\000\000\000\000\000\000\000\000\000\000\000\000\000\000\000\000\000\000\000\000\000\000\000\000\000\000\000\000\000\000\000\000\000\000\000\000\000\000\000\000\000\000\000\000\000\000\000\000\000\000\000\000\000\000\000\000\000\000\000\000\000\000\000\000\000\000\000\000\000\000\000\000\000\000\000\000\000\000\000\000\000\000\000\000\000\000\000\000\000\000\000\000\000\000\000\000\000\000\000\000\000\000\000\000\000\000\000\000\000\000\000\000\000\000\000\000\000\000\000\000\000\000\000\000\000\000\000\000\000\000\000\000\000\000\000\000\000\000\000\000\000\000\000\000\000\000\000\000\000\000\000\000\000\000\000\000\000\000\000\000\000\000\000\000\000\000\000\000\000\000\000\000\000\000\000\000\000\000\000\000\000\000\000\000\000\000\000\000\000\000\000\000\000\000\000\000\000\000\000\000\000\000\000\000\000\000\000\000\000\000\000\000\000\000\000\000\000\000\000\000\000\000\000\000\000\000\000\000\000\000\000\000\000\000\000\000\000\000\000\000\000\000\000\000\000\000\000\000\000\000\000\000\000\000\000\000\000\000\000\000\000\000\000\000\000\000\000\000\000\000\000\000\000\000\000\000\000\000\000\000\000\000\000\000\000\000\000\000\000\000\000\000\000\000\000\000\000\000\000\000\000\000\000\000\000\000\000\000\000\000\000\000\000\000\000\000\000\000\000\000\000\000\000\000\000\000\000\000\000\000\000\000\000\000\000\000\000\000\000\000\000\000\000\000\000\000\000\000\000\000\000\000\000\000\000\000\000\000\000\000\000\000\000\000\000\000\000\000\000\000\000\000\000\000\000\000\000\000\000\000\000\000\000\000\000\000\000\000\000\000\000\000\000\000\000\000\000\000\000\000\000\000\000\000\000\000\000\000\000\000\000\000\000\000\000\000\000\000\000\000\000\000\000\000\000\000\000\000\000\000\000\000\000\000\000\000\000\000\000\000\000\000\000\000\000\000\000\000\000\000\000\000\000\000\000\000\000\000\000\000\000\000\000\000\000\000\000\000\000\000\000\000\000\000\000\000\000\000\000\000\000\000\000\000\000\000\000\000\000\000\000\000\000\000\000\000\000\000\000\000\000\000\000\000\000\000\000\000\000\000\000\000\000\000\000\000\000\000\000\000\000\000\000\000\000\000\000\000\000\000\000\000\000\000\000\000\000\000\000\000\000\000\000\000\000\000\000\000\000\000\000\000\000\000\000\000\000\000\000\000\000\000\000\000\000\000\000\000\000\000\000\000\000\000\000\000\000\000\000\000\000\000\000\000\000\000\000\000\000\000\000\000\000\000\000\000\000\000\000\000\000\000\000\000\000\000\000\000\000\000\000\000\000\000\000\000\000\000\000\000\000\000\000\000\000\000\000\000\000\000\000\000\000\000\000\000\000\000\000\000\000\000\000\000\000\000\000\000\000\000\000\000\000\000\000\000\000\000\000\000\000\000\000\000\000\000\000\000\000\000\000\000\000\000\000\000\000\000\000\000\000\000\000\000\000\000\000\000\000\000\000\000\000\000\000\000\000\000\000\000\000\000\000\000\000\000\000\000\000\000\000\000\000\000\000\000\000\000\000\000\000\000\000\000\000\000\000\000\000\000\000\000\000\000\000\000\000\000\000\000\000\000\000\000\000\000\000\000\000\000\000\000\000\000\000\000\000\000\000\000\000\000\000\000\000\000\000\000\000\000\000\000\000\000\000\000\000\000\000\000\000\000\000\000\000\000\000\000\000\000\000\000\000\000\000\000\000\000\000\000\000\000\000\000\000\000\000\000\000\000\000\000\000\000\000\000\000\000\000\000\000\000\000\000\000\000\000\000\000\000\000\000\000\000\000\000\000\000\000\000\000\000\000\000\000\000\000\000\000\000\000\000\000\000\000\000\000\000\000\000\000\000\000\000\000\000\000\000\000\000\000\000\000\000\000\000\000\000\000\000\000\000\000\000\000\000\000\000\000\000\000\000\000\000\000\000\000\000\000\000\000\000\000\000\000\000\000\000\000\000\000\000\000\000\000\000\000\000\000\000\000\000\000\000\000\000\000\000\000\000\000\000\000\000\000\000\000\000\000\000\000\000\000\000\000\000\000\000\000\000\000\000\000\000\000\000\000\000\000\000\000\000\000\000\000\000\000\000\000\000\000\000\000\000\000\000\000\000\000\000\000\000\000\000\000\000\000\000\000\000\000\000\000\000\000\000\000\000\000\000\000\000\000\000\000\000\000\000\000\000\000\000\000\000\000\000\000\000\000\000\000\000\000\000\000\000\000\000\000\000\000\000\000\000\000\000\000\000\000\000\000\000\000\000\000\000\000\000\000\000\000\000\000\000\000\000\000\000\000\000\000\000\000\000\000\000\000\000\000\000\000\000\000\000\000\000\000\000\000\000\000\000\000\000\000\000\000\000\000\000\000\000\000\000\000\000\000\000\000\000\000\000\000\000\000\000\000\000\000\000\000\000\000\000\000\000\000\000\000\000\000\000\000\000\000\000\000\000\000\000\000\000\000\000\000\000\000\000\000\000\000\000\000\000\000\000\000\000\000\000\000\000\000\000\000\000\000\000\000\000\000\000\000\000\000\000\000\000\000\000\000\000\000\000\000\000\000\000\000\000\000\000\000\000\000\000\000\000\000\000\000\000\000\000\000\000\000\000\000\000\000\000\000\000\000\000\000\000\000\000\000\000\000\000\000\000\000\000\000\000\000\000\000\000\000\000\000\000\000\000\000\000\000\000\000\000\000\000\000\000\000\000\000\000\000\000\000\000\000\000\000\000\000\000\000\000\000\000\000\000\000\000\000\000\000\000\000\000\000\000\000\000\000\000\000\000\000\000\000\000\000\000\000\000\000\000\000\000\000\000\000\000\000\000\000\000\000\000\000\000\000\000\000\000\000\000\000\000\000\000\000\000\000\000\000\000\000\000\000\000\000\000\000\000\000\000\000\000\000\000\000\000\000\000\000\000\000\000\000\000\000\000\000\000\000\000\000\000\000\000\000\000\000\000\000\000\000\000\000\000\000\000\000\000\000\000\000\000\000\000\000\000\000\000\000\000\000\000\000\000\000\000\000\000\000\000\000\000\000\000\000\000\000\000\000\000\000\000\000\000\000\000\000\000\000\000\000\000\000\000\000\000\000\000\000\000\000\000\000\000\000\000\000\000\000\000\000\000\000\000\000\000\000\000\000\000\000\000\000\000\000\000\000\000\000\000\000\000\000\000\000\000\000\000\000\000\000\000\000\000\000\000\000\000\000\000\000\000\000\000\000\000\000\000\000\000\000\000\000\000\000\000\000\000\000\000\000\000\000\000\000\000\000\000\000\000\000\000\000\000\000\000\000\000\000\000\000\000\000\000\000\000\000\000\000\000\000\000\000\000\000\000\000\000\000\000\000\000\000\000\000\000\000\000\000\000\000\000\000\000\000\000\000\000\000\000\000\000\000\000\000\000\000\000\000\000\000\000\000\000\000\000\000\000\000\000\000\000\000\000\000\000\000\000\000\000\000\000\000\000\000\000\000\000\000\000\000\000\000\000\000\000\000\000\000\000\000\000\000\000\000\000\000\000\000\000\000\000\000\000\000\000\000\000\000\000\000\000\000\000\000\000\000\000\000\000\000\000\000\000\000\000\000\000\000\000\000\000\000\000\000\000\000\000\000\000\000\000\000\000\000\000\000\000\000\000\000\000\000\000\000\000\000\000\000\000\000\000\000\000\000\000\000\000\000\000\000\000\000\000\000\000\000\000\000\000\000\000\000\000\000\000\000\000\000\000\000\000\000\000\000\000\000\000\000\000\000\000\000\000\000\000\000\000\000\000\000\000\000\000\000\000\000\000\000\000\000\000\000\000\000\000\000\000\000\000\000\000\000\000\000\000\000\000\000\000\000\000\000\000\000\000\000\000\000\000\000\000\000\000\000\000\000\000\000\000\000\000\000\000\000\000\000\000\000\000\000\000\000\000\000\000\000\000\000\000\000\000\000\000\000\000\000\000\000\000\000\000\000\000\000\000\000\000\000\000\000\000\000\000\000\000\000\000\000\000\000\000\000\000\000\000\000\000\000\000\000\000\000\000\000\000\000\000\000\000\000\000\000\000\000\000\000\000\000\000\000\000\000\000\000\000\000\000\000\000\000\000\000\000\000\000\000\000\000\000\000\000\000\000\000\000\000\000\000\000\000\000\000\000\000\000\000\000\000\000\000\000\000\000\000\000\000\000\000\000\000\000\000\000\000\000\000\000\000\000\000\000\000\000\000\000\000\000\000\000\000\000\000\000\000\000\000\000\000\000\000\000\000\000\000\000\000\000\000\000\000\000\000\000\000\000\000\000\000\000\000\000\000\000\000\000\000\000\000\000\000\000\000\000\000\000\000\000\000\000\000\000\000\000\000\000\000\000\000\000\000\000\000\000\000\000\000\000\000\000\000\000\000\000\000\000\000\000\000\000\000\000\000\000\000\000\000\000\000\000\000\000\000\000\000\000\000\000\000\000\000\000\000\000\000\000\000\000\000\000\000\000\000\000\000\000\000\000\000\000\000\000\000\000\000\000\000\000\000\000\000\000\000\000\000\000\000\000\000\000\000\000\000\000\000\000\000\000\000\000\000\000\000\000\000\000\000\000\000\000\000\000\000\000\000\000\000\000\000\000\000\000\000\000\000\000\000\000\000\000\000\000\000\000\000\000\000\000\000\000\000\000\000\000\000\000\000\000\000\000\000\000\000\000\000\000\000\000\000\000\000\000\000\000\000\000\000\000\000\000\000\000\000\000\000\000\000\000\000\000\000\000\000\000\000\000\000\000\000\000\000\000\000\000\000\000\000\000\000\000\000\000\000\000\000\000\000\000\000\000\000\000\000\000\000\000\000\000\000\000\000\000\000\000\000\000\000\000\000\000\000\000\000\000\000\000\000\000\000\000\000\000\000\000\000\000\000\000\000\000\000\000\000\000\000\000\000\000\000\000\000\000\000\000\000\000\000\000\000\000\000\000\000\000\000\000\000\000\000\000\000\000\000\000\000\000\000\000\000\000\000\000\000\000\000\000\000\000\000\000\000\000\000\000\000\000\000\000\000\000\000\000\000\000\000\000\000\000\000\000\000\000\000\000\000\000\000\000\000\000\000\000\000\000\000\000\000\000\000\000\000\000\000\000\000\000\000\000\000\000\000\000\000\000\000\000\000\000\000\000\000\000\000\000\000\000\000\000\000\000\000\000\000\000\000\000\000\000\000\000\000\000\000\000\000\000\000\000\000\000\000\000\000\000\000\000\000\000\000\000\000\000\000\000\000\000\000\000\000\000\000\000\000\000\000\000\000\000\000\000\000\000\000\000\000\000\000\000\000\000\000\000\000\000\000\000\000\000\000\000\000\000\000\000\000\000\000\000\000\000\000\000\000\000\000\000\000\000\000\000\000\000\000\000\000\000\000\000\000\000\000\000\000\000\000\000\000\000\000\000\000\000\000\000\000\000\000\000\000\000\000\000\000\000\000\000\000\000\000\000\000\000\000\000\000\000\000\000\000\000\000\000\000\000\000\000\000\000\000\000\000\000\000\000\000\000\000\000\000\000\000\000\000\000\000\000\000\000\000\000\000\000\000\000\000\000\000\000\000\000\000\000\000\000\000\000\000\000\000\000\000\000\000\000\000\000\000\000\000\000\000\000\000\000\000\000\000\000\000\000\000\000\000\000\000\000\000\000\000\000\000\000\000\000\000\000\000\000\000\000\000\000\000\000\000\000\000\000\000\000\000\000\000\000\000\000\000\000\000\000\000\000\000\000\000\000\000\000\000\000\000\000\000\000\000\000\000\000\000\000\000\000\000\000\000\000\000\000\000\000\000\000\000\000\000\000\000\000\000\000\000\000\000\000\000\000\000\000\000\000\000\000\000\000\000\000\000\000\000\000\000\000\000\000\000\000\000\000\000\000\000\000\000\000\000\000\000\000\000\000\000\000\000\000\000\000\000\000\000\000\000\000\000\000\000\000\000\000\000\000\000\000\000\000\000\000\000\000\000\000\000\000\000\000\000\000\000\000\000\000\000\000\000\000\000\000\000\000\000\000\000\000\000\000\000\000\000\000\000\000\000\000\000\000\000\000\000\000\000\000\000\000\000\000\000\000\000\000\000\000\000\000\000\000\000\000\000\000\000\000\000\000\000\000\000\000\000\000\000\000\000\000\000\000\000\000\000\000\000\000\000\000\000\000\000\000\000\000\000\000\000\000\000\000\000\000\000\000\000\000\000\000\000\000\000\000\000\000\000\000\000\000\000\000\000\000\000\000\000\000\000\000\000\000\000\000\000\000\000\000\000\000\000\000\000\000\000\000\000\000\000\000\000\000\000\000\000\000\000\000\000\000\000\000\000\000\000\000\000\000\000\000\000\000\000\000\000\000\000\000\000\000\000\000\000\000\000\000\000\000\000\000\000\000\000\000\000\000\000\000\000\000\000\000\000\000\000\000\000\000\000\177ELF\002\001\001@\004\000\000\000\000\000\000\000\003\000\340\000\001\000\000\000\000\000\000\000\000\000\000\000@\000\000\000\000\000\000\000\220\036\000\000\000\000\000\000O\005\000\000@\0008\000\t\000@\000\021\000\017\000\006\000\000\000\004\000\000\000@\000\000\000\000\000\000\000@\000\000\000\000\000\000\000@\000\000\000\000\000\000\000\370\001\000\000\000\000\000\000\370\001\000\000\000\000\000\000\b\000\000\000\000\000\000\000\001\000\000\000\004\000\000\000\000\000\000\000\000\000\000\000\000\000\000\000\000\000\000\000\000\000\000\000\000\000\000\000\000\n\000\000\000\000\000\000\000\n\000\000\000\000\000\000\000\020\000\000\000\000\000\000\001\000\000\000\005\000\000\000\000\n\000\000\000\000\000\000\000\032\000\000\000\000\000\000\000\032\000\000\000\000\000\000@\017\000\000\000\000\000\000@\017\000\000\000\000\000\000\000\020\000\000\000\000\000\000\001\000\000\000\006\000\000\000@\031\000\000\000\000\000\000@9\000\000\000\000\000\000@9\000\000\000\000\000\000p\000\000\000\000\000\000\000\300\006\000\000\000\000\000\000\000\020\000\000\000\000\000\000\001\000\000\000\006\000\000\000\260\031\000\000\000\000\000\000\260I\000\000\000\000\000\000\260I\000\000\000\000\000\000\000\000\000\000\000\000\000\000\001\000\000\000\000\000\000\000\000\020\000\000\000\000\000\000\002\000\000\000\006\000\000\000@\031\000\000\000\000\000\000@9\000\000\000\000\000\000@9\000\000\000\000\000\000p\000\000\000\000\000\000\000p\000\000\000\000\000\000\000\b\000\000\000\000\000\000\000R\345td\004\000\000\000@\031\000\000\000\000\000\000@9\000\000\000\000\000\000@9\000\000\000\000\000\000p\000\000\000\000\000\000\000\300\006\000\000\000\000\000\000\001\000\000\000\000\000\000\000Q\345td\006\000\000\000\000\000\000\000\000\000\000\000\000\000\000\000\000\000\000\000\000\000\000\000\000\000\000\000\000\000\000\000\000\000\000\000\000\000\000\000\000\000\000\000\000\000\000\000\000\000\000\000\004\000\000\000\004\000\000\0008\002\000\000\000\000\000\0008\002\000\000\000\000\000\0008\002\000\000\000\000\000\000\210\006\000\000\000\000\000\000\210\006\000\000\000\000\000\000\004\000\000\000\000\000\000\000\007\000\000\000t\006\000\000 \000\000\000AMDGPU\000\000\203\256amdhsa.kernels\221\336\000\022\253.agpr_count\000\245.args\334\000\025\205\256.actual_access\251read_only\256.address_space\246global\247.offset\000\245.size\b\253.value_kind\255global_buffer\205\256.actual_access\251read_only\256.address_space\246global\247.offset\b\245.size\b\253.value_kind\255global_buffer\205\256.actual_access\251read_only\256.address_space\246global\247.offset\020\245.size\b\253.value_kind\255global_buffer\205\256.actual_access\251read_only\256.address_space\246global\247.offset\030\245.size\b\253.value_kind\255global_buffer\205\256.actual_access\252write_only\256.address_space\246global\247.offset \245.size\b\253.value_kind\255global_buffer\203\247.offset(\245.size\004\253.value_kind\250by_value\203\247.offset,\245.size\004\253.value_kind\250by_value\203\247.offset0\245.size\004\253.value_kind\250by_value\203\247.offset8\245.size\004\253.value_kind\264hidden_block_count_x\203\247.offset<\245.size\004\253.value_kind\264hidden_block_count_y\203\247.offset@\245.size\004\253.value_kind\264hidden_block_count_z\203\247.offsetD\245.size\002\253.value_kind\263hidden_group_size_x\203\247.offsetF\245.size\002\253.value_kind\263hidden_group_size_y\203\247.offsetH\245.size\002\253.value_kind\263hidden_group_size_z\203\247.offsetJ\245.size\002\253.value_kind\262hidden_remainder_x\203\247.offsetL\245.size\002\253.value_kind\262hidden_remainder_y\203\247.offsetN\245.size\002\253.value_kind\262hidden_remainder_z\203\247.offset`\245.size\b\253.value_kind\266hidden_global_offset_x\203\247.offseth\245.size\b\253.value_kind\266hidden_global_offset_y\203\247.offsetp\245.size\b\253.value_kind\266hidden_global_offset_z\203\247.offsetx\245.size\002\253.value_kind\260hidden_grid_dims\271.group_segment_fixed_size\315H\000\266.kernarg_segment_align\b\265.kernarg_segment_size\315\0018\251.language\250OpenCL C\261.language_version\222\002\000\270.max_flat_workgroup_size\315\001\000\245.name\253fp4_lds_opt\273.private_segment_fixed_size\000\253.sgpr_count\037\261.sgpr_spill_count\000\247.symbol\256fp4_lds_opt.kd\270.uniform_work_group_size\001\263.uses_dynamic_stack\302\253.vgpr_count2\261.vgpr_spill_count\000\257.wavefront_size@\255amdhsa.target\271amdgcn-amd-amdhsa--gfx950\256amdhsa.version\222\001\002\000\000\000\000\000\000\000\000\000\000\000\000\000\000\000\000\000\000\000\000\000\000\000\000\001\000\000\000\022\003\007\000\000\032\000\000\000\000\000\000\b\013\000\000\000\000\000\000\r\000\000\000\021\003\006\000\300\t\000\000\000\000\000\000@\000\000\000\000\000\000\000\034\000\000\000\021\000\n\000\260I\000\000\000\000\000\000\001\000\000\000\000\000\000\000\001\000\000\000\001\000\000\000\001\000\000\000\032\000\000\000\t\b\000\020\020\000\001\000\001\000\000\000B\363\332\223@\242\377\302]EV-\004\000\000\000\004\000\000\000\002\000\000\000\003\000\000\000\000\000\000\000\000\000\000\000\000\000\000\000\000\000\000\000\001\000\000\000\000\000\000\000\000fp4_lds_opt\000fp4_lds_opt.kd\000__hip_cuid_33e1a9c3232aa6e5\000\000\000\000\000\000\000\000\000\000\000\000\000\000\000\000\000\000\000\000\000\000\000\000\000\000H\000\000\000\000\000\0008\001\000\000\000\000\000\000@\020\000\000\000\000\000\000\000\000\000\000\000\000\000\000\000\000\000\000\000\000\000\000\000\000\000\000\f\000\000\000\306\000\257\000\204\000\000\000\b\000\000\000\000\000\000\000\000\002\n\300(\000\000\000\300\000\002\3008\000\000\000\002\237\006\220\006\235\006\217\002\006\006\201\177\300\214\277\b\237\004\220\t\237\005\220\004\233\004\217\b\004\004\201\005\233\005\217\004\205\004\220\t\005\005\201\005\205\005\220\004\210\013\203\013\005\005\222\0050\214\276\f\f\002~\006\203\007\220\006\310\006\206\002\006\202\201\001G\002~\003\237\006\220\006\235\006\217\003\006\003\201\377\002\002\n\376\377\177O\001\017\002~\003\203\003\220\003\002\002\222\002\007\002\201\200\f\207\201\001\005\032~\007\r\007\222\r\007\007\226\0020\206\276\r\007\r\201\006\r\007\226\007\f\r\222\002\005\003\210\006\r\206\201\003\237\003\220\007\201\r\201\006\f\216\201\006\f\t\277\r\007\007\205\016\006\006\205\007\201\r\201\006\f\t\277\r\007\006\205\006\003\006\210\006\003\203\201\003\013\007\222\004\007\204\201\004\013\004\203\0040\206\276\006\f\002~\003\005\003\222\200\006\205\201\002\003\202\201\001G\002~\002\004\003\210\003\237\026\220\0020\203\276\377\002\002\n\376\377\177O\001\017\002~\000\004\006\300\000\000\000\000\203\000\" \200\002\004~\001\005\026~\005\013\005\222\013\005\005\226\013\005\013\201\003\013\005\226\005\006\013\222\003\013\203\201\005\201\013\201\003\006\214\201\003\006\t\277\013\005\005\205\f\003\003\205\005\201\013\201\003\006\t\277\013\005\003\205\003\026\027\210\027\026\206\201\006\004\003\222\002\003\202\201\002\007\002\201\002\205\013\216\204\000\002$\013\"$(\377\002,&p\000\000\000\004\000\304\320\b$\002\000\200\002\b~\200\002\n~\200\002\f~\200\002\016~\004 \202\276\b\000\210\277\004\f\350\321\022\025X\004\237\b\n\"\177\300\214\277\004\000\b\322\020\000\021\004\000\200\\\334\004\000\177\004~\002\376\207\200\004\006\300\b\000\000\000\006\205\f\216\220\000\002\260\001\000\303\321\021\005X\004\f\"&(p\017\214\277\000\000\276\331\001\004\000\000\002\000\304\320\t&\002\000\200\002\006~\200\002\b~\200\002\n~\002 \206\276\b\000\210\277\002\016\350\321\023\025X\004\237\004\006\"\177\300\214\277\002\000\b\322\022\000\t\004\000\200\\\334\002\000\177\002~\006\376\207\237\000(&\177\000\n\262\f(.(p\017\214\277\000$\276\331\001\002\000\000\177\300\214\277\000\000\212\277\003\000\205\277\f( (\200\001\214\276\001\000\202\277\301\001\214\276\200\001\006\300 \000\000\000\030\000\310\321\000\013\005\002\201\000\224\276~\f\352\211\200\002\036~\200\002\034~\200\002\032~\200\002\030~\200\002\026~\200\002\024~\200\002\022~\200\002\020~\200\002\016~\200\002\f~\200\002\n~\200\002\b~\200\002\006~\200\002\004~\200\002\002~\200\002\000~\317\000\207\277\000\003\n\300\020\000\000\000\n\237\000\220\000\231\001\217\n\001\001\201\001\207\025\220\000\234\000\217\001\000\205\322\022\025\000\000\003\000\205\322\023\025\000\000\200\000\001\260\n\000\000\201\032\000\377\321\003-\006\000\034\000\377\321\001-\006\000\001\000\000\322\027\nQ\004\026\205\001\216\000\204\000\220\001\002\002l\200\002\000~\2020\004(\2040\b(\2060\f(\036\000\205\322\000\002\002\000\013(\002h\20402$ \000\205\322\000\002\002\000\200\000\212\276\377\"D\020\220\000\000\000\377(F\020\220\000\000\000\2030H$\001\001\026\260\203\004J$\203\bL$\203\fN$\200\000\227\276\000\003\002~\000\003\004~\000\003\006~\000\003\b~\000\003\n~\000\003\f~\000\003\016~\000\003\020~\000\003\022~\000\003\024~\000\003\026~\000\003\030~\000\003\032~\000\003\034~\000\003\036~q\000\202\277~\000\376\207\000$\030\267\024\000\377\321\030DZ\004p\017\214\277\000\000\276\331\024\020\000\000\237@B\"\177\300\214\277\020\000\b\322\f\000\201\004\237<>\"\022\000\b\322\016\000y\004\000\200T\334\020\000\177\024\000\200T\334\022\000\177,\177\300\214\277\001\000\217\277\n\377\000\222\000\022\000\000\033\000\377\321\000Ff\004\000$\000\267\035\000\377\321\000Ff\004\000\000\376\331\033\000\000\020\000\000\376\331\035\000\000(q\017\214\277\037\000\310\321\024I\"\002p\017\214\277!\000\310\321,I\"\002\377>>\020\001\001\000\000\377BB\020\001\001\000\000\177\300\214\277\000\000\200\277\000\000\254\323\037C\002\000\000\f\256\323\020Q\002\204 \000\376\331\033\000\000\020 \000\376\331\035\000\000(.\000\220\322%)\002\0000\000\220\322%Y\002\000\371,>\020.\006\000\206\371,B\0200\006\000\206\177\300\214\277\000\000\200\277\000\000\254\323\037C\002\000\000\f\256\323\020Q\002\204@\000\376\331\033\000\000\020@\000\376\331\035\000\000(.\000\220\322&)\002\0000\000\220\322&Y\002\000\371,>\020.\006\000\206\371,B\0200\006\000\206\177\300\214\277\000\000\200\277\000\000\254\323\037C\002\000\000\f\256\323\020Q\002\204`\000\376\331\033\000\000\020`\000\376\331\035\000\000(\024\000\220\322')\002\000,\000\220\322'Y\002\000\371,(\020\024\006\000\206\371,*\020,\006\000\206\177\300\214\277\000\000\200\277\000\000\254\323\024+\002\000\000\f\256\323\020Q\002\204\000\000\217\277\n\201\n\210\024\201\024\210\37744h\200\000\000\000\37788h\200\000\000\000\210<<h\025\027\006\277\210@@h\000\000\212\277\"\000\205\277\027\201\027\201\027\025\003\277\223\377\205\277\200\002 ~\200\002$~\200\002&~\200\002(~\200\002*~\004 \200\276\005\000\210\277\2378:\"\022\000\b\322\020\000q\004\000\200\\\334\022\000\177\022~\000\376\207\024\377\030\222\000\022\000\000\021\000\377\321\030DZ\004p\017\214\277\000\000\276\331\021\022\000\000\200\002\"~\200\002$~\200\002&~\002 \200\276s\377\210\277\23746\"\020\000\b\322\022\000i\004\000\200\\\334\020\000\177\020m\377\202\277\027\003 ~\021\000\000\322\030\005-\000\t \210}\000\000\304\320\b\"\002\000\000j\202\206\002 \200\276\r\000\210\277\022\000\310\321\000!\005\002\377\177\002\260\000\000\377\321\000%\n\000\022\002\350\321\021\023@\004\237$&\"\177\300\214\277\022\000\b\322\022\003\031\000\000\200l\334\022\000\177\000~\000\376\207\201\"\000(\000\000\304\320\b\000\002\000\000j\202\206\002 \200\276\r\000\210\277\022\000\310\321\001!\005\002\377\177\002\260\022\000\377\321\001%\n\000\000\002\350\321\000\023@\004\237\000\002\"\177\300\214\277\000\000\b\322\000\003\031\000\000\200l\334\000\022\177\000~\000\376\207\202\"\000(\000\000\304\320\b\000\002\000\000j\202\206\002 \200\276\r\000\210\277\001\000\310\321\002!\005\002\377\177\002\260\002\000\377\321\002\003\n\000\000\002\350\321\000\023@\004\237\000\002\"\177\300\214\277\000\000\b\322\000\003\031\000\000\200l\334\000\002\177\000~\000\376\207\203\"\000(\000\000\304\320\b\000\002\000\000j\202\206\002 \200\276\r\000\210\277\001\000\310\321\003!\005\002\377\177\002\260\002\000\377\321\003\003\n\000\000\002\350\321\000\023@\004\237\000\002\"\177\300\214\277\000\000\b\322\000\003\031\000\000\200l\334\000\002\177\000~\000\376\207\210\"\000(\000\000\304\320\b\000\002\000\000j\202\206\002 \200\276\r\000\210\277\001\000\310\321\004!\005\002\377\177\002\260\002\000\377\321\004\003\n\000\000\002\350\321\000\023@\004\237\000\002\"\177\300\214\277\000\000\b\322\000\003\031\000\000\200l\334\000\002\177\000~\000\376\207\211\"\000(\000\000\304\320\b\000\002\000\000j\202\206\002 \200\276\r\000\210\277\001\000\310\321\005!\005\002\377\177\002\260\002\000\377\321\005\003\n\000\000\002\350\321\000\023@\004\237\000\002\"\177\300\214\277\000\000\b\322\000\003\031\000\000\200l\334\000\002\177\000~\000\376\207\212\"\000(\000\000\304\320\b\000\002\000\000j\202\206\002 \200\276\r\000\210\277\001\000\310\321\006!\005\002\377\177\002\260\002\000\377\321\006\003\n\000\000\002\350\321\000\023@\004\237\000\002\"\177\300\214\277\000\000\b\322\000\003\031\000\000\200l\334\000\002\177\000~\000\376\207\213\"\000(\000\000\304\320\b\000\002\000\000j\202\206\002 \200\276\r\000\210\277\001\000\310\321\007!\005\002\377\177\002\260\002\000\377\321\007\003\n\000\000\002\350\321\000\023@\004\237\000\002\"\177\300\214\277\000\000\b\322\000\003\031\000\000\200l\334\000\002\177\000~\000\376\207\220\"\000(\000\000\304\320\b\000\002\000\000j\202\206\002 \200\276\r\000\210\277\001\000\310\321\b!\005\002\377\177\002\260\002\000\377\321\b\003\n\000\000\002\350\321\000\023@\004\237\000\002\"\177\300\214\277\000\000\b\322\000\003\031\000\000\200l\334\000\002\177\000~\000\376\207\221\"\000(\000\000\304\320\b\000\002\000\000j\202\206\002 \200\276\r\000\210\277\001\000\310\321\t!\005\002\377\177\002\260\002\000\377\321\t\003\n\000\000\002\350\321\000\023@\004\237\000\002\"\177\300\214\277\000\000\b\322\000\003\031\000\000\200l\334\000\002\177\000~\000\376\207\222\"\000(\000\000\304\320\b\000\002\000\000j\202\206\002 \200\276\r\000\210\277\001\000\310\321\n!\005\002\377\177\002\260\002\000\377\321\n\003\n\000\000\002\350\321\000\023@\004\237\000\002\"\177\300\214\277\000\000\b\322\000\003\031\000\000\200l\334\000\002\177\000~\000\376\207\223\"\000(\000\000\304\320\b\000\002\000\000j\202\206\002 \200\276\r\000\210\277\001\000\310\321\013!\005\002\377\177\002\260\002\000\377\321\013\003\n\000\000\002\350\321\000\023@\004\237\000\002\"\177\300\214\277\000\000\b\322\000\003\031\000\000\200l\334\000\002\177\000~\000\376\207\230\"\000(\000\000\304\320\b\000\002\000\000j\202\206\002 \200\276\r\000\210\277\001\000\310\321\f!\005\002\377\177\002\260\002\000\377\321\f\003\n\000\000\002\350\321\000\023@\004\237\000\002\"\177\300\214\277\000\000\b\322\000\003\031\000\000\200l\334\000\002\177\000~\000\376\207\231\"\000(\000\000\304\320\b\000\002\000\000j\202\206\002 \200\276\r\000\210\277\001\000\310\321\r!\005\002\377\177\002\260\002\000\377\321\r\003\n\000\000\002\350\321\000\023@\004\237\000\002\"\177\300\214\277\000\000\b\322\000\003\031\000\000\200l\334\000\002\177\000~\000\376\207\232\"\000(\000\000\304\320\b\000\002\000\000j\202\206\002 \200\276\r\000\210\277\001\000\310\321\016!\005\002\377\177\002\260\002\000\377\321\016\003\n\000\000\002\350\321\000\023@\004\237\000\002\"\177\300\214\277\000\000\b\322\000\003\031\000\000\200l\334\000\002\177\000~\000\376\207\233\"\000(\000\000\304\320\b\000\002\000\000j\200\206\000 \202\276\r\000\210\277\001\000\310\321\017!\005\002\377\177\000\260\002\000\377\321\017\003\002\000\000\000\350\321\000\023@\004\237\000\002\"\177\300\214\277\000\000\b\322\000\003\031\000\000\200l\334\000\002\177\000\000\000\201\277\000\000\200\277\000\000\200\277\000\000\200\277\000\000\200\277\000\000\200\277\000\000\200\277\000\000\200\277\000\000\200\277\000\000\200\277\000\000\200\277\000\000\200\277\000\000\200\277\000\000\200\277\000\000\200\277\000\000\200\277\000\000\200\277\000\000\200\277\000\000\200\277\000\000\200\277\000\000\200\277\000\000\200\277\000\000\200\277\000\000\200\277\000\000\200\277\000\000\200\277\000\000\200\277\000\000\200\277\000\000\200\277\000\000\200\277\000\000\200\277\000\000\200\277\000\000\200\277\000\000\200\277\000\000\200\277\000\000\200\277\000\000\200\277\000\000\200\277\000\000\200\277\000\000\200\277\000\000\200\277\000\000\200\277\000\000\200\277\000\000\200\277\000\000\200\277\000\000\200\277\000\000\200\277\000\000\200\277\000\000\200\277\000\000\200\277\000\000\200\277\000\000\200\277\000\000\200\277\000\000\200\277\000\000\200\277\000\000\200\277\000\000\200\277\000\000\200\277\000\000\200\277\000\000\200\277\000\000\200\277\000\000\200\277\000\000\200\277\000\000\200\277\000\000\200\277\000\000\200\277\000\000\200\277\000\000\200\277\000\000\200\277\000\000\200\277\000\000\200\277\000\000\200\277\000\000\200\277\000\000\200\277\000\000\200\277\000\000\200\277\000\000\200\277\000\000\200\277\000\000\200\277\000\000\200\277\000\000\200\277\000\000\200\277\000\000\200\277\000\000\200\277\000\000\200\277\000\000\200\277\000\000\200\277\000\000\200\277\000\000\200\277\000\000\200\277\000\000\200\277\000\000\200\277\000\000\200\277\000\000\200\277\000\000\200\277\000\000\200\277\000\000\200\277\000\000\200\277\000\000\200\277\000\000\200\277\000\000\200\277\000\000\200\277\000\000\200\277\000\000\200\277\000\000\200\277\000\000\200\277\000\000\200\277\000\000\200\277\000\000\200\277\000\000\200\277\000\000\200\277\000\000\200\277\000\000\200\277\000\000\200\277\000\000\200\277\000\000\200\277\000\000\200\277\000\000\200\277\000\000\200\277\000\000\200\277\000\000\200\277\000\000\200\277\000\000\200\277\000\000\200\277\000\000\200\277\000\000\200\277\000\000\200\277\000\000\200\277\000\000\200\277\000\000\200\277\000\000\200\277\000\000\200\277\000\000\200\277\000\000\200\277\000\000\200\277\000\000\200\277\000\000\200\277\000\000\200\277\000\000\200\277\000\000\200\277\000\000\200\277\000\000\200\277\000\000\200\277\000\000\200\277\000\000\200\277\000\000\200\277\000\000\200\277\000\000\200\277\000\000\200\277\000\000\200\277\000\000\200\277\000\000\200\277\000\000\200\277\000\000\200\277\000\000\200\277\000\000\200\277\000\000\200\277\000\000\200\277\000\000\200\277\000\000\200\277\000\000\200\277\000\000\200\277\000\000\200\277\000\000\200\277\000\000\200\277\000\000\200\277\000\000\200\277\000\000\200\277\000\000\200\277\000\000\200\277\000\000\200\277\000\000\200\277\000\000\200\277\000\000\200\277\000\000\200\277\000\000\200\277\000\000\200\277\000\000\200\277\000\000\200\277\000\000\200\277\000\000\200\277\000\000\200\277\000\000\200\277\000\000\200\277\000\000\200\277\000\000\200\277\000\000\200\277\000\000\200\277\000\000\200\277\000\000\200\277\000\000\200\277\000\000\200\277\000\000\200\277\000\000\200\277\000\000\200\277\000\000\200\277\000\000\200\277\000\000\200\277\000\000\200\277\000\000\200\277\000\000\200\277\000\000\200\277\000\000\200\277\000\000\200\277\000\000\200\277\000\000\200\277\000\000\200\277\000\000\200\277\000\000\200\277\000\000\200\277\000\000\200\277\000\000\200\277\000\000\200\277\000\000\200\277\000\000\200\277\000\000\200\277\000\000\200\277\000\000\200\277\000\000\200\277\000\000\200\277\000\000\200\277\000\000\200\277\000\000\200\277\000\000\200\277\000\000\200\277\000\000\200\277\000\000\200\277\000\000\200\277\000\000\200\277\000\000\200\277\000\000\200\277\000\000\200\277\000\000\200\277\000\000\200\277\000\000\200\277\000\000\200\277\000\000\200\277\000\000\200\277\000\000\200\277\000\000\200\277\000\000\200\277\000\000\200\277\000\000\200\277\000\000\200\277\000\000\200\277\000\000\200\277\000\000\200\277\000\000\200\277\000\000\200\277\000\000\200\277\000\000\200\277\000\000\200\277\000\000\200\277\000\000\200\277\000\000\200\277\000\000\200\277\000\000\200\277\000\000\200\277\000\000\200\277\000\000\200\277\000\000\200\277\000\000\200\277\000\000\200\277\000\000\200\277\000\000\200\277\000\000\200\277\000\000\200\277\000\000\200\277\000\000\200\277\000\000\200\277\000\000\200\277\006\000\000\000\000\000\000\000\300\b\000\000\000\000\000\000\013\000\000\000\000\000\000\000\030\000\000\000\000\000\000\000\005\000\000\000\000\000\000\000p\t\000\000\000\000\000\000\n\000\000\000\000\000\000\0008\000\000\000\000\000\000\000\365\376\377o\000\000\000\000 \t\000\000\000\000\000\000\004\000\000\000\000\000\000\000H\t\000\000\000\000\000\000\000\000\000\000\000\000\000\000\000\000\000\000\000\000\000\000\000AMD clang version 20.0.0git (https://github.com/RadeonOpenCompute/llvm-project roc-7.1.0 25425 1b0eada6b0ee93e2e694c8c146d23fca90bc11c5)\000Linker: AMD LLD 20.0.0 (/longer_pathname_so_that_rpms_can_support_packaging_the_debug_info_for_all_os_profiles/src/llvm-project/llvm 1b0eada6b0ee93e2e694c8c146d23fca90bc11c5)\000\000\000\000\000\000\000\000\000\000\000\000\000\000\000\000\000\000\000\000\000\000\000\000\000\000\000\000\000\000\000\000\001\000\000\000\000\000\361\3772\000\000\000\000\000\000\000\000\000\000\000\000\000\000\000\026\000\000\000\000\000\361\377\000\000\000\000\000\000\000\000\000\000\000\000\000\000\000\000+\000\000\000\000\000\361\377\031\000\000\000\000\000\000\000\000\000\000\000\000\000\000\000E\000\000\000\000\000\361\377\000\000\000\000\000\000\000\000\000\000\000\000\000\000\000\000b\000\000\000\000\000\361\377\001\000\000\000\000\000\000\000\000\000\000\000\000\000\000\000w\000\000\000\000\000\361\377\000\000\000\000\000\000\000\000\000\000\000\000\000\000\000\000\225\000\000\000\000\000\361\377\000\000\000\000\000\000\000\000\000\000\000\000\000\000\000\000\265\000\000\000\000\000\361\377\000\000\000\000\000\000\000\000\000\000\000\000\000\000\000\000\317\000\000\000\000\000\361\377\000\000\000\000\000\000\000\000\000\000\000\000\000\000\000\000\355\000\000\000\000\000\361\377\000\000\000\000\000\000\000\000\000\000\000\000\000\000\000\000\001\001\000\000\000\000\361\377\000\000\000\000\000\000\000\000\000\000\000\000\000\000\000\000\025\001\000\000\000\000\361\377\000\000\000\000\000\000\000\000\000\000\000\000\000\000\000\000`\001\000\000\000\002\b\000@9\000\000\000\000\000\000\000\000\000\000\000\000\000\000)\001\000\000\022\003\007\000\000\032\000\000\000\000\000\000\b\013\000\000\000\000\000\0005\001\000\000\021\003\006\000\300\t\000\000\000\000\000\000@\000\000\000\000\000\000\000D\001\000\000\021\000\n\000\260I\000\000\000\000\000\000\001\000\000\000\000\000\000\000\000.note\000.dynsym\000.gnu.hash\000.hash\000.dynstr\000.rodata\000.text\000.dynamic\000.relro_padding\000.bss\000.AMDGPU.csdata\000.AMDGPU.gpr_maximums\000.comment\000.symtab\000.shstrtab\000.strtab\000\000fp4_lds_opt.num_vgpr\000fp4_lds_opt.num_agpr\000fp4_lds_opt.numbered_sgpr\000fp4_lds_opt.private_seg_size\000fp4_lds_opt.uses_vcc\000fp4_lds_opt.uses_flat_scratch\000fp4_lds_opt.has_dyn_sized_stack\000fp4_lds_opt.has_recursion\000fp4_lds_opt.has_indirect_call\000amdgpu.max_num_vgpr\000amdgpu.max_num_agpr\000amdgpu.max_num_sgpr\000fp4_lds_opt\000fp4_lds_opt.kd\000__hip_cuid_33e1a9c3232aa6e5\000_DYNAMIC\000\000\000\000\000\000\000\000\000\000\000\000\000\000\000\000\000\000\000\000\000\000\000\000\000\000\000\000\000\000\000\000\000\000\000\000\000\000\000\000\000\000\000\000\000\000\000\000\000\000\000\000\000\000\000\000\000\000\000\000\000\000\000\000\000\000\000\000\000\000\000\001\000\000\000\007\000\000\000\002\000\000\000\000\000\000\0008\002\000\000\000\000\000\0008\002\000\000\000\000\000\000\210\006\000\000\000\000\000\000\000\000\000\000\000\000\000\000\004\000\000\000\000\000\000\000\000\000\000\000\000\000\000\000\007\000\000\000\013\000\000\000\002\000\000\000\000\000\000\000\300\b\000\000\000\000\000\000\300\b\000\000\000\000\000\000`\000\000\000\000\000\000\000\005\000\000\000\001\000\000\000\b\000\000\000\000\000\000\000\030\000\000\000\000\000\000\000\017\000\000\000\366\377\377o\002\000\000\000\000\000\000\000 \t\000\000\000\000\000\000 \t\000\000\000\000\000\000(\000\000\000\000\000\000\000\002\000\000\000\000\000\000\000\b\000\000\000\000\000\000\000\000\000\000\000\000\000\000\000\031\000\000\000\005\000\000\000\002\000\000\000\000\000\000\000H\t\000\000\000\000\000\000H\t\000\000\000\000\000\000(\000\000\000\000\000\000\000\002\000\000\000\000\000\000\000\004\000\000\000\000\000\000\000\004\000\000\000\000\000\000\000\037\000\000\000\003\000\000\000\002\000\000\000\000\000\000\000p\t\000\000\000\000\000\000p\t\000\000\000\000\000\0008\000\000\000\000\000\000\000\000\000\000\000\000\000\000\000\001\000\000\000\000\000\000\000\000\000\000\000\000\000\000\000'\000\000\000\001\000\000\000\002\000\000\000\000\000\000\000\300\t\000\000\000\000\000\000\300\t\000\000\000\000\000\000@\000\000\000\000\000\000\000\000\000\000\000\000\000\000\000@\000\000\000\000\000\000\000\000\000\000\000\000\000\000\000/\000\000\000\001\000\000\000\006\000\000\000\000\000\000\000\000\032\000\000\000\000\000\000\000\n\000\000\000\000\000\000@\017\000\000\000\000\000\000\000\000\000\000\000\000\000\000\000\001\000\000\000\000\000\000\000\000\000\000\000\000\000\0005\000\000\000\006\000\000\000\003\000\000\000\000\000\000\000@9\000\000\000\000\000\000@\031\000\000\000\000\000\000p\000\000\000\000\000\000\000\005\000\000\000\000\000\000\000\b\000\000\000\000\000\000\000\020\000\000\000\000\000\000\000>\000\000\000\b\000\000\000\003\000\000\000\000\000\000\000\2609\000\000\000\000\000\000\260\031\000\000\000\000\000\000P\006\000\000\000\000\000\000\000\000\000\000\000\000\000\000\001\000\000\000\000\000\000\000\000\000\000\000\000\000\000\000M\000\000\000\b\000\000\000\003\000\000\000\000\000\000\000\260I\000\000\000\000\000\000\260\031\000\000\000\000\000\000\001\000\000\000\000\000\000\000\000\000\000\000\000\000\000\000\001\000\000\000\000\000\000\000\000\000\000\000\000\000\000\000R\000\000\000\001\000\000\000\000\000\000\000\000\000\000\000\000\000\000\000\000\000\000\000\260\031\000\000\000\000\000\000\000\000\000\000\000\000\000\000\000\000\000\000\000\000\000\000\001\000\000\000\000\000\000\000\000\000\000\000\000\000\000\000a\000\000\000\001\000\000\000\000\000\000\000\000\000\000\000\000\000\000\000\000\000\000\000\260\031\000\000\000\000\000\000\000\000\000\000\000\000\000\000\000\000\000\000\000\000\000\000\001\000\000\000\000\000\000\000\000\000\000\000\000\000\000\000v\000\000\000\001\000\000\0000\000\000\000\000\000\000\000\000\000\000\000\000\000\000\000\260\031\000\000\000\000\000\0009\001\000\000\000\000\000\000\000\000\000\000\000\000\000\000\001\000\000\000\000\000\000\000\001\000\000\000\000\000\000\000\177\000\000\000\002\000\000\000\000\000\000\000\000\000\000\000\000\000\000\000\000\000\000\000\360\032\000\000\000\000\000\000\230\001\000\000\000\000\000\000\020\000\000\000\016\000\000\000\b\000\000\000\000\000\000\000\030\000\000\000\000\000\000\000\207\000\000\000\003\000\000\000\000\000\000\000\000\000\000\000\000\000\000\000\000\000\000\000\210\034\000\000\000\000\000\000\231\000\000\000\000\000\000\000\000\000\000\000\000\000\000\000\001\000\000\000\000\000\000\000\000\000\000\000\000\000\000\000\221\000\000\000\003\000\000\000\000\000\000\000\000\000\000\000\000\000\000\000\000\000\000\000!\035\000\000\000\000\000\000i\001\000\000\000\000\000\000\000\000\000\000\000\000\000\000\001\000\000\000\000\000\000\000\000\000\000\000\000\000\000"
	.size	.L__unnamed_2, 13008

	.type	__hip_fatbin_wrapper,@object    # @__hip_fatbin_wrapper
	.section	.hipFatBinSegment,"a",@progbits
	.p2align	3, 0x0
__hip_fatbin_wrapper:
	.long	1212764230                      # 0x48495046
	.long	1                               # 0x1
	.quad	.L__unnamed_2
	.quad	0
	.size	__hip_fatbin_wrapper, 24

	.type	__hip_gpubin_handle_33e1a9c3232aa6e5,@object # @__hip_gpubin_handle_33e1a9c3232aa6e5
	.local	__hip_gpubin_handle_33e1a9c3232aa6e5
	.comm	__hip_gpubin_handle_33e1a9c3232aa6e5,8,8
	.section	.init_array,"aw",@init_array
	.p2align	3, 0x0
	.quad	__hip_module_ctor
	.type	__hip_cuid_33e1a9c3232aa6e5,@object # @__hip_cuid_33e1a9c3232aa6e5
	.bss
	.globl	__hip_cuid_33e1a9c3232aa6e5
__hip_cuid_33e1a9c3232aa6e5:
	.byte	0                               # 0x0
	.size	__hip_cuid_33e1a9c3232aa6e5, 1

	.section	".linker-options","e",@llvm_linker_options
	.ident	"AMD clang version 20.0.0git (https://github.com/RadeonOpenCompute/llvm-project roc-7.1.0 25425 1b0eada6b0ee93e2e694c8c146d23fca90bc11c5)"
	.section	".note.GNU-stack","",@progbits
	.addrsig
	.addrsig_sym __device_stub__fp4_lds_opt
	.addrsig_sym __hip_module_ctor
	.addrsig_sym __hip_module_dtor
	.addrsig_sym fp4_lds_opt
	.addrsig_sym .L__unnamed_2
	.addrsig_sym __hip_fatbin_wrapper
	.addrsig_sym __hip_cuid_33e1a9c3232aa6e5
