	.file	"test_noquant.hip"
	.text
	.globl	__device_stub__noquant          # -- Begin function __device_stub__noquant
	.p2align	4
	.type	__device_stub__noquant,@function
__device_stub__noquant:                 # @__device_stub__noquant
	.cfi_startproc
# %bb.0:
	subq	$136, %rsp
	.cfi_def_cfa_offset 144
	movq	%rdi, 72(%rsp)
	movq	%rsi, 64(%rsp)
	movl	%edx, 12(%rsp)
	movl	%ecx, 8(%rsp)
	movl	%r8d, 4(%rsp)
	movl	%r9d, (%rsp)
	leaq	72(%rsp), %rax
	movq	%rax, 80(%rsp)
	leaq	64(%rsp), %rax
	movq	%rax, 88(%rsp)
	leaq	12(%rsp), %rax
	movq	%rax, 96(%rsp)
	leaq	8(%rsp), %rax
	movq	%rax, 104(%rsp)
	leaq	4(%rsp), %rax
	movq	%rax, 112(%rsp)
	movq	%rsp, %rax
	movq	%rax, 120(%rsp)
	leaq	48(%rsp), %rdi
	leaq	32(%rsp), %rsi
	leaq	24(%rsp), %rdx
	leaq	16(%rsp), %rcx
	callq	__hipPopCallConfiguration
	movq	48(%rsp), %rsi
	movl	56(%rsp), %edx
	movq	32(%rsp), %rcx
	movl	40(%rsp), %r8d
	leaq	80(%rsp), %r9
	movl	$noquant, %edi
	pushq	16(%rsp)
	.cfi_adjust_cfa_offset 8
	pushq	32(%rsp)
	.cfi_adjust_cfa_offset 8
	callq	hipLaunchKernel
	addq	$152, %rsp
	.cfi_adjust_cfa_offset -152
	retq
.Lfunc_end0:
	.size	__device_stub__noquant, .Lfunc_end0-__device_stub__noquant
	.cfi_endproc
                                        # -- End function
	.p2align	4                               # -- Begin function __hip_module_ctor
	.type	__hip_module_ctor,@function
__hip_module_ctor:                      # @__hip_module_ctor
	.cfi_startproc
# %bb.0:
	subq	$40, %rsp
	.cfi_def_cfa_offset 48
	movq	__hip_gpubin_handle_e07ec4e163847883(%rip), %rdi
	testq	%rdi, %rdi
	jne	.LBB1_2
# %bb.1:
	movl	$__hip_fatbin_wrapper, %edi
	callq	__hipRegisterFatBinary
	movq	%rax, %rdi
	movq	%rax, __hip_gpubin_handle_e07ec4e163847883(%rip)
.LBB1_2:
	xorps	%xmm0, %xmm0
	movups	%xmm0, 16(%rsp)
	movups	%xmm0, (%rsp)
	movl	$noquant, %esi
	movl	$.L__unnamed_1, %edx
	movl	$.L__unnamed_1, %ecx
	movl	$-1, %r8d
	xorl	%r9d, %r9d
	callq	__hipRegisterFunction
	movl	$__hip_module_dtor, %edi
	addq	$40, %rsp
	.cfi_def_cfa_offset 8
	jmp	atexit                          # TAILCALL
.Lfunc_end1:
	.size	__hip_module_ctor, .Lfunc_end1-__hip_module_ctor
	.cfi_endproc
                                        # -- End function
	.p2align	4                               # -- Begin function __hip_module_dtor
	.type	__hip_module_dtor,@function
__hip_module_dtor:                      # @__hip_module_dtor
	.cfi_startproc
# %bb.0:
	movq	__hip_gpubin_handle_e07ec4e163847883(%rip), %rdi
	testq	%rdi, %rdi
	je	.LBB2_2
# %bb.1:
	pushq	%rax
	.cfi_def_cfa_offset 16
	callq	__hipUnregisterFatBinary
	movq	$0, __hip_gpubin_handle_e07ec4e163847883(%rip)
	addq	$8, %rsp
	.cfi_def_cfa_offset 8
.LBB2_2:
	retq
.Lfunc_end2:
	.size	__hip_module_dtor, .Lfunc_end2-__hip_module_dtor
	.cfi_endproc
                                        # -- End function
	.type	noquant,@object                 # @noquant
	.section	.rodata,"a",@progbits
	.globl	noquant
	.p2align	3, 0x0
noquant:
	.quad	__device_stub__noquant
	.size	noquant, 8

	.type	.L__unnamed_1,@object           # @0
	.section	.rodata.str1.1,"aMS",@progbits,1
.L__unnamed_1:
	.asciz	"noquant"
	.size	.L__unnamed_1, 8

	.type	.L__unnamed_2,@object           # @1
	.section	.hip_fatbin,"a",@progbits
	.p2align	12, 0x0
.L__unnamed_2:
	.asciz	"__CLANG_OFFLOAD_BUNDLE__\002\000\000\000\000\000\000\000\000\020\000\000\000\000\000\000\000\000\000\000\000\000\000\000\036\000\000\000\000\000\000\000host-x86_64-unknown-linux-gnu-\000\020\000\000\000\000\000\000\340\037\000\000\000\000\000\000\037\000\000\000\000\000\000\000hipv4-amdgcn-amd-amdhsa--gfx950\000\000\000\000\000\000\000\000\000\000\000\000\000\000\000\000\000\000\000\000\000\000\000\000\000\000\000\000\000\000\000\000\000\000\000\000\000\000\000\000\000\000\000\000\000\000\000\000\000\000\000\000\000\000\000\000\000\000\000\000\000\000\000\000\000\000\000\000\000\000\000\000\000\000\000\000\000\000\000\000\000\000\000\000\000\000\000\000\000\000\000\000\000\000\000\000\000\000\000\000\000\000\000\000\000\000\000\000\000\000\000\000\000\000\000\000\000\000\000\000\000\000\000\000\000\000\000\000\000\000\000\000\000\000\000\000\000\000\000\000\000\000\000\000\000\000\000\000\000\000\000\000\000\000\000\000\000\000\000\000\000\000\000\000\000\000\000\000\000\000\000\000\000\000\000\000\000\000\000\000\000\000\000\000\000\000\000\000\000\000\000\000\000\000\000\000\000\000\000\000\000\000\000\000\000\000\000\000\000\000\000\000\000\000\000\000\000\000\000\000\000\000\000\000\000\000\000\000\000\000\000\000\000\000\000\000\000\000\000\000\000\000\000\000\000\000\000\000\000\000\000\000\000\000\000\000\000\000\000\000\000\000\000\000\000\000\000\000\000\000\000\000\000\000\000\000\000\000\000\000\000\000\000\000\000\000\000\000\000\000\000\000\000\000\000\000\000\000\000\000\000\000\000\000\000\000\000\000\000\000\000\000\000\000\000\000\000\000\000\000\000\000\000\000\000\000\000\000\000\000\000\000\000\000\000\000\000\000\000\000\000\000\000\000\000\000\000\000\000\000\000\000\000\000\000\000\000\000\000\000\000\000\000\000\000\000\000\000\000\000\000\000\000\000\000\000\000\000\000\000\000\000\000\000\000\000\000\000\000\000\000\000\000\000\000\000\000\000\000\000\000\000\000\000\000\000\000\000\000\000\000\000\000\000\000\000\000\000\000\000\000\000\000\000\000\000\000\000\000\000\000\000\000\000\000\000\000\000\000\000\000\000\000\000\000\000\000\000\000\000\000\000\000\000\000\000\000\000\000\000\000\000\000\000\000\000\000\000\000\000\000\000\000\000\000\000\000\000\000\000\000\000\000\000\000\000\000\000\000\000\000\000\000\000\000\000\000\000\000\000\000\000\000\000\000\000\000\000\000\000\000\000\000\000\000\000\000\000\000\000\000\000\000\000\000\000\000\000\000\000\000\000\000\000\000\000\000\000\000\000\000\000\000\000\000\000\000\000\000\000\000\000\000\000\000\000\000\000\000\000\000\000\000\000\000\000\000\000\000\000\000\000\000\000\000\000\000\000\000\000\000\000\000\000\000\000\000\000\000\000\000\000\000\000\000\000\000\000\000\000\000\000\000\000\000\000\000\000\000\000\000\000\000\000\000\000\000\000\000\000\000\000\000\000\000\000\000\000\000\000\000\000\000\000\000\000\000\000\000\000\000\000\000\000\000\000\000\000\000\000\000\000\000\000\000\000\000\000\000\000\000\000\000\000\000\000\000\000\000\000\000\000\000\000\000\000\000\000\000\000\000\000\000\000\000\000\000\000\000\000\000\000\000\000\000\000\000\000\000\000\000\000\000\000\000\000\000\000\000\000\000\000\000\000\000\000\000\000\000\000\000\000\000\000\000\000\000\000\000\000\000\000\000\000\000\000\000\000\000\000\000\000\000\000\000\000\000\000\000\000\000\000\000\000\000\000\000\000\000\000\000\000\000\000\000\000\000\000\000\000\000\000\000\000\000\000\000\000\000\000\000\000\000\000\000\000\000\000\000\000\000\000\000\000\000\000\000\000\000\000\000\000\000\000\000\000\000\000\000\000\000\000\000\000\000\000\000\000\000\000\000\000\000\000\000\000\000\000\000\000\000\000\000\000\000\000\000\000\000\000\000\000\000\000\000\000\000\000\000\000\000\000\000\000\000\000\000\000\000\000\000\000\000\000\000\000\000\000\000\000\000\000\000\000\000\000\000\000\000\000\000\000\000\000\000\000\000\000\000\000\000\000\000\000\000\000\000\000\000\000\000\000\000\000\000\000\000\000\000\000\000\000\000\000\000\000\000\000\000\000\000\000\000\000\000\000\000\000\000\000\000\000\000\000\000\000\000\000\000\000\000\000\000\000\000\000\000\000\000\000\000\000\000\000\000\000\000\000\000\000\000\000\000\000\000\000\000\000\000\000\000\000\000\000\000\000\000\000\000\000\000\000\000\000\000\000\000\000\000\000\000\000\000\000\000\000\000\000\000\000\000\000\000\000\000\000\000\000\000\000\000\000\000\000\000\000\000\000\000\000\000\000\000\000\000\000\000\000\000\000\000\000\000\000\000\000\000\000\000\000\000\000\000\000\000\000\000\000\000\000\000\000\000\000\000\000\000\000\000\000\000\000\000\000\000\000\000\000\000\000\000\000\000\000\000\000\000\000\000\000\000\000\000\000\000\000\000\000\000\000\000\000\000\000\000\000\000\000\000\000\000\000\000\000\000\000\000\000\000\000\000\000\000\000\000\000\000\000\000\000\000\000\000\000\000\000\000\000\000\000\000\000\000\000\000\000\000\000\000\000\000\000\000\000\000\000\000\000\000\000\000\000\000\000\000\000\000\000\000\000\000\000\000\000\000\000\000\000\000\000\000\000\000\000\000\000\000\000\000\000\000\000\000\000\000\000\000\000\000\000\000\000\000\000\000\000\000\000\000\000\000\000\000\000\000\000\000\000\000\000\000\000\000\000\000\000\000\000\000\000\000\000\000\000\000\000\000\000\000\000\000\000\000\000\000\000\000\000\000\000\000\000\000\000\000\000\000\000\000\000\000\000\000\000\000\000\000\000\000\000\000\000\000\000\000\000\000\000\000\000\000\000\000\000\000\000\000\000\000\000\000\000\000\000\000\000\000\000\000\000\000\000\000\000\000\000\000\000\000\000\000\000\000\000\000\000\000\000\000\000\000\000\000\000\000\000\000\000\000\000\000\000\000\000\000\000\000\000\000\000\000\000\000\000\000\000\000\000\000\000\000\000\000\000\000\000\000\000\000\000\000\000\000\000\000\000\000\000\000\000\000\000\000\000\000\000\000\000\000\000\000\000\000\000\000\000\000\000\000\000\000\000\000\000\000\000\000\000\000\000\000\000\000\000\000\000\000\000\000\000\000\000\000\000\000\000\000\000\000\000\000\000\000\000\000\000\000\000\000\000\000\000\000\000\000\000\000\000\000\000\000\000\000\000\000\000\000\000\000\000\000\000\000\000\000\000\000\000\000\000\000\000\000\000\000\000\000\000\000\000\000\000\000\000\000\000\000\000\000\000\000\000\000\000\000\000\000\000\000\000\000\000\000\000\000\000\000\000\000\000\000\000\000\000\000\000\000\000\000\000\000\000\000\000\000\000\000\000\000\000\000\000\000\000\000\000\000\000\000\000\000\000\000\000\000\000\000\000\000\000\000\000\000\000\000\000\000\000\000\000\000\000\000\000\000\000\000\000\000\000\000\000\000\000\000\000\000\000\000\000\000\000\000\000\000\000\000\000\000\000\000\000\000\000\000\000\000\000\000\000\000\000\000\000\000\000\000\000\000\000\000\000\000\000\000\000\000\000\000\000\000\000\000\000\000\000\000\000\000\000\000\000\000\000\000\000\000\000\000\000\000\000\000\000\000\000\000\000\000\000\000\000\000\000\000\000\000\000\000\000\000\000\000\000\000\000\000\000\000\000\000\000\000\000\000\000\000\000\000\000\000\000\000\000\000\000\000\000\000\000\000\000\000\000\000\000\000\000\000\000\000\000\000\000\000\000\000\000\000\000\000\000\000\000\000\000\000\000\000\000\000\000\000\000\000\000\000\000\000\000\000\000\000\000\000\000\000\000\000\000\000\000\000\000\000\000\000\000\000\000\000\000\000\000\000\000\000\000\000\000\000\000\000\000\000\000\000\000\000\000\000\000\000\000\000\000\000\000\000\000\000\000\000\000\000\000\000\000\000\000\000\000\000\000\000\000\000\000\000\000\000\000\000\000\000\000\000\000\000\000\000\000\000\000\000\000\000\000\000\000\000\000\000\000\000\000\000\000\000\000\000\000\000\000\000\000\000\000\000\000\000\000\000\000\000\000\000\000\000\000\000\000\000\000\000\000\000\000\000\000\000\000\000\000\000\000\000\000\000\000\000\000\000\000\000\000\000\000\000\000\000\000\000\000\000\000\000\000\000\000\000\000\000\000\000\000\000\000\000\000\000\000\000\000\000\000\000\000\000\000\000\000\000\000\000\000\000\000\000\000\000\000\000\000\000\000\000\000\000\000\000\000\000\000\000\000\000\000\000\000\000\000\000\000\000\000\000\000\000\000\000\000\000\000\000\000\000\000\000\000\000\000\000\000\000\000\000\000\000\000\000\000\000\000\000\000\000\000\000\000\000\000\000\000\000\000\000\000\000\000\000\000\000\000\000\000\000\000\000\000\000\000\000\000\000\000\000\000\000\000\000\000\000\000\000\000\000\000\000\000\000\000\000\000\000\000\000\000\000\000\000\000\000\000\000\000\000\000\000\000\000\000\000\000\000\000\000\000\000\000\000\000\000\000\000\000\000\000\000\000\000\000\000\000\000\000\000\000\000\000\000\000\000\000\000\000\000\000\000\000\000\000\000\000\000\000\000\000\000\000\000\000\000\000\000\000\000\000\000\000\000\000\000\000\000\000\000\000\000\000\000\000\000\000\000\000\000\000\000\000\000\000\000\000\000\000\000\000\000\000\000\000\000\000\000\000\000\000\000\000\000\000\000\000\000\000\000\000\000\000\000\000\000\000\000\000\000\000\000\000\000\000\000\000\000\000\000\000\000\000\000\000\000\000\000\000\000\000\000\000\000\000\000\000\000\000\000\000\000\000\000\000\000\000\000\000\000\000\000\000\000\000\000\000\000\000\000\000\000\000\000\000\000\000\000\000\000\000\000\000\000\000\000\000\000\000\000\000\000\000\000\000\000\000\000\000\000\000\000\000\000\000\000\000\000\000\000\000\000\000\000\000\000\000\000\000\000\000\000\000\000\000\000\000\000\000\000\000\000\000\000\000\000\000\000\000\000\000\000\000\000\000\000\000\000\000\000\000\000\000\000\000\000\000\000\000\000\000\000\000\000\000\000\000\000\000\000\000\000\000\000\000\000\000\000\000\000\000\000\000\000\000\000\000\000\000\000\000\000\000\000\000\000\000\000\000\000\000\000\000\000\000\000\000\000\000\000\000\000\000\000\000\000\000\000\000\000\000\000\000\000\000\000\000\000\000\000\000\000\000\000\000\000\000\000\000\000\000\000\000\000\000\000\000\000\000\000\000\000\000\000\000\000\000\000\000\000\000\000\000\000\000\000\000\000\000\000\000\000\000\000\000\000\000\000\000\000\000\000\000\000\000\000\000\000\000\000\000\000\000\000\000\000\000\000\000\000\000\000\000\000\000\000\000\000\000\000\000\000\000\000\000\000\000\000\000\000\000\000\000\000\000\000\000\000\000\000\000\000\000\000\000\000\000\000\000\000\000\000\000\000\000\000\000\000\000\000\000\000\000\000\000\000\000\000\000\000\000\000\000\000\000\000\000\000\000\000\000\000\000\000\000\000\000\000\000\000\000\000\000\000\000\000\000\000\000\000\000\000\000\000\000\000\000\000\000\000\000\000\000\000\000\000\000\000\000\000\000\000\000\000\000\000\000\000\000\000\000\000\000\000\000\000\000\000\000\000\000\000\000\000\000\000\000\000\000\000\000\000\000\000\000\000\000\000\000\000\000\000\000\000\000\000\000\000\000\000\000\000\000\000\000\000\000\000\000\000\000\000\000\000\000\000\000\000\000\000\000\000\000\000\000\000\000\000\000\000\000\000\000\000\000\000\000\000\000\000\000\000\000\000\000\000\000\000\000\000\000\000\000\000\000\000\000\000\000\000\000\000\000\000\000\000\000\000\000\000\000\000\000\000\000\000\000\000\000\000\000\000\000\000\000\000\000\000\000\000\000\000\000\000\000\000\000\000\000\000\000\000\000\000\000\000\000\000\000\000\000\000\000\000\000\000\000\000\000\000\000\000\000\000\000\000\000\000\000\000\000\000\000\000\000\000\000\000\000\000\000\000\000\000\000\000\000\000\000\000\000\000\000\000\000\000\000\000\000\000\000\000\000\000\000\000\000\000\000\000\000\000\000\000\000\000\000\000\000\000\000\000\000\000\000\000\000\000\000\000\000\000\000\000\000\000\000\000\000\000\000\000\000\000\000\000\000\000\000\000\000\000\000\000\000\000\000\000\000\000\000\000\000\000\000\000\000\000\000\000\000\000\000\000\000\000\000\000\000\000\000\000\000\000\000\000\000\000\000\000\000\000\000\000\000\000\000\000\000\000\000\000\000\000\000\000\000\000\000\000\000\000\000\000\000\000\000\000\000\000\000\000\000\000\000\000\000\000\000\000\000\000\000\000\000\000\000\000\000\000\000\000\000\000\000\000\000\000\000\000\000\000\000\000\000\000\000\000\000\000\000\000\000\000\000\000\000\000\000\000\000\000\000\000\000\000\000\000\000\000\000\000\000\000\000\000\000\000\000\000\000\000\000\000\000\000\000\000\000\000\000\000\000\000\000\000\000\000\000\000\000\000\000\000\000\000\000\000\000\000\000\000\000\000\000\000\000\000\000\000\000\000\000\000\000\000\000\000\000\000\000\000\000\000\000\000\000\000\000\000\000\000\000\000\000\000\000\000\000\000\000\000\000\000\000\000\000\000\000\000\000\000\000\000\000\000\000\000\000\000\000\000\000\000\000\000\000\000\000\000\000\000\000\000\000\000\000\000\000\000\000\000\000\000\000\000\000\000\000\000\000\000\000\000\000\000\000\000\000\000\000\000\000\000\000\000\000\000\000\000\000\000\000\000\000\000\000\000\000\000\000\000\000\000\000\000\000\000\000\000\000\000\000\000\000\000\000\000\000\000\000\000\000\000\000\000\000\000\000\000\000\000\000\000\000\000\000\000\000\000\000\000\000\000\000\000\000\000\000\000\000\000\000\000\000\000\000\000\000\000\000\000\000\000\000\000\000\000\000\000\000\000\000\000\000\000\000\000\000\000\000\000\000\000\000\000\000\000\000\000\000\000\000\000\000\000\000\000\000\000\000\000\000\000\000\000\000\000\000\000\000\000\000\000\000\000\000\000\000\000\000\000\000\000\000\000\000\000\000\000\000\000\000\000\000\000\000\000\000\000\000\000\000\000\000\000\000\000\000\000\000\000\000\000\000\000\000\000\000\000\000\000\000\000\000\000\000\000\000\000\000\000\000\000\000\000\000\000\000\000\000\000\000\000\000\000\000\000\000\000\000\000\000\000\000\000\000\000\000\000\000\000\000\000\000\000\000\000\000\000\000\000\000\000\000\000\000\000\000\000\000\000\000\000\000\000\000\000\000\000\000\000\000\000\000\000\000\000\000\000\000\000\000\000\000\000\000\000\000\000\000\000\000\000\000\000\000\000\000\000\000\000\000\000\000\000\000\000\000\000\000\000\000\000\000\000\000\000\000\000\000\000\000\000\000\000\000\000\000\000\000\000\000\000\000\000\000\000\000\000\000\000\000\000\000\000\000\000\000\000\000\000\000\000\000\000\000\000\000\000\000\000\000\000\000\000\000\000\000\000\000\000\000\000\000\000\000\000\000\000\000\000\000\000\000\000\000\000\000\000\000\000\000\000\000\000\000\000\000\000\000\000\000\000\000\000\000\000\000\000\000\000\000\000\000\000\000\000\000\000\000\000\000\000\000\000\000\000\000\000\000\000\000\000\000\000\000\000\000\000\000\000\000\000\000\000\000\000\000\000\000\000\000\000\000\000\000\000\000\000\000\000\000\000\000\000\000\000\000\000\000\000\000\000\000\000\000\000\000\000\000\000\000\000\000\000\000\000\000\000\000\000\000\000\000\000\000\000\000\000\000\000\000\000\000\000\000\000\000\000\000\000\000\000\000\000\000\000\000\000\000\000\000\000\000\000\000\000\000\000\000\000\000\000\000\000\000\000\000\000\000\000\000\000\000\000\000\000\000\000\000\000\000\000\000\000\000\000\000\000\000\000\000\000\000\000\000\000\000\000\000\000\000\000\000\000\000\000\000\000\000\000\000\000\000\000\000\000\000\000\000\000\000\000\000\000\000\000\000\000\000\000\000\000\000\000\000\000\000\000\000\000\000\000\000\000\000\000\000\000\000\000\000\000\000\000\000\000\000\000\000\000\000\000\000\000\000\000\000\000\000\000\000\000\000\000\000\000\000\000\000\000\000\000\000\000\000\000\000\000\000\000\000\000\000\000\000\000\000\000\000\000\000\000\000\000\000\000\000\000\000\000\000\000\000\000\000\000\000\000\000\000\000\000\000\000\000\000\000\000\000\000\000\000\000\000\000\000\000\000\000\000\000\000\000\000\000\000\000\000\000\000\000\000\000\000\000\000\000\000\000\000\000\000\000\000\000\000\000\000\000\000\000\000\000\000\000\000\000\000\000\000\000\000\000\000\000\000\000\000\000\000\000\000\000\000\000\000\000\000\000\000\000\000\000\000\000\000\000\000\000\000\000\000\000\000\000\000\000\000\000\000\000\000\000\000\000\000\000\000\000\000\000\000\000\000\000\000\000\000\000\000\000\000\000\000\000\000\000\000\000\000\000\000\000\000\000\000\000\000\000\000\000\000\000\000\000\000\000\000\000\000\000\000\000\000\000\000\000\000\000\000\000\000\000\000\000\000\000\000\000\000\000\000\000\000\000\000\000\000\000\000\000\000\000\000\000\000\000\000\000\000\000\000\000\000\000\000\000\000\000\000\000\000\000\000\000\000\000\000\000\000\000\000\000\000\000\000\000\000\000\000\000\000\000\000\000\000\177ELF\002\001\001@\004\000\000\000\000\000\000\000\003\000\340\000\001\000\000\000\000\000\000\000\000\000\000\000@\000\000\000\000\000\000\000\240\033\000\000\000\000\000\000O\005\000\000@\0008\000\t\000@\000\021\000\017\000\006\000\000\000\004\000\000\000@\000\000\000\000\000\000\000@\000\000\000\000\000\000\000@\000\000\000\000\000\000\000\370\001\000\000\000\000\000\000\370\001\000\000\000\000\000\000\b\000\000\000\000\000\000\000\001\000\000\000\004\000\000\000\000\000\000\000\000\000\000\000\000\000\000\000\000\000\000\000\000\000\000\000\000\000\000\000\000\t\000\000\000\000\000\000\000\t\000\000\000\000\000\000\000\020\000\000\000\000\000\000\001\000\000\000\005\000\000\000\000\t\000\000\000\000\000\000\000\031\000\000\000\000\000\000\000\031\000\000\000\000\000\000\200\r\000\000\000\000\000\000\200\r\000\000\000\000\000\000\000\020\000\000\000\000\000\000\001\000\000\000\006\000\000\000\200\026\000\000\000\000\000\000\2006\000\000\000\000\000\000\2006\000\000\000\000\000\000p\000\000\000\000\000\000\000\200\t\000\000\000\000\000\000\000\020\000\000\000\000\000\000\001\000\000\000\006\000\000\000\360\026\000\000\000\000\000\000\360F\000\000\000\000\000\000\360F\000\000\000\000\000\000\000\000\000\000\000\000\000\000\001\000\000\000\000\000\000\000\000\020\000\000\000\000\000\000\002\000\000\000\006\000\000\000\200\026\000\000\000\000\000\000\2006\000\000\000\000\000\000\2006\000\000\000\000\000\000p\000\000\000\000\000\000\000p\000\000\000\000\000\000\000\b\000\000\000\000\000\000\000R\345td\004\000\000\000\200\026\000\000\000\000\000\000\2006\000\000\000\000\000\000\2006\000\000\000\000\000\000p\000\000\000\000\000\000\000\200\t\000\000\000\000\000\000\001\000\000\000\000\000\000\000Q\345td\006\000\000\000\000\000\000\000\000\000\000\000\000\000\000\000\000\000\000\000\000\000\000\000\000\000\000\000\000\000\000\000\000\000\000\000\000\000\000\000\000\000\000\000\000\000\000\000\000\000\000\000\004\000\000\000\004\000\000\0008\002\000\000\000\000\000\0008\002\000\000\000\000\000\0008\002\000\000\000\000\000\000\230\005\000\000\000\000\000\000\230\005\000\000\000\000\000\000\004\000\000\000\000\000\000\000\007\000\000\000\204\005\000\000 \000\000\000AMDGPU\000\000\203\256amdhsa.kernels\221\336\000\022\253.agpr_count\000\245.args\334\000\023\205\256.actual_access\251read_only\256.address_space\246global\247.offset\000\245.size\b\253.value_kind\255global_buffer\205\256.actual_access\252write_only\256.address_space\246global\247.offset\b\245.size\b\253.value_kind\255global_buffer\203\247.offset\020\245.size\004\253.value_kind\250by_value\203\247.offset\024\245.size\004\253.value_kind\250by_value\203\247.offset\030\245.size\004\253.value_kind\250by_value\203\247.offset\034\245.size\004\253.value_kind\250by_value\203\247.offset \245.size\004\253.value_kind\264hidden_block_count_x\203\247.offset$\245.size\004\253.value_kind\264hidden_block_count_y\203\247.offset(\245.size\004\253.value_kind\264hidden_block_count_z\203\247.offset,\245.size\002\253.value_kind\263hidden_group_size_x\203\247.offset.\245.size\002\253.value_kind\263hidden_group_size_y\203\247.offset0\245.size\002\253.value_kind\263hidden_group_size_z\203\247.offset2\245.size\002\253.value_kind\262hidden_remainder_x\203\247.offset4\245.size\002\253.value_kind\262hidden_remainder_y\203\247.offset6\245.size\002\253.value_kind\262hidden_remainder_z\203\247.offsetH\245.size\b\253.value_kind\266hidden_global_offset_x\203\247.offsetP\245.size\b\253.value_kind\266hidden_global_offset_y\203\247.offsetX\245.size\b\253.value_kind\266hidden_global_offset_z\203\247.offset`\245.size\002\253.value_kind\260hidden_grid_dims\271.group_segment_fixed_size\315\020\000\266.kernarg_segment_align\b\265.kernarg_segment_size\315\001 \251.language\250OpenCL C\261.language_version\222\002\000\270.max_flat_workgroup_size\315\001\000\245.name\247noquant\273.private_segment_fixed_size\000\253.sgpr_count\032\261.sgpr_spill_count\000\247.symbol\252noquant.kd\270.uniform_work_group_size\001\263.uses_dynamic_stack\302\253.vgpr_count(\261.vgpr_spill_count\000\257.wavefront_size@\255amdhsa.target\271amdgcn-amd-amdhsa--gfx950\256amdhsa.version\222\001\002\000\000\000\000\000\000\000\000\000\000\000\000\000\000\000\000\000\000\000\000\000\000\000\000\001\000\000\000\022\003\007\000\000\031\000\000\000\000\000\000T\t\000\000\000\000\000\000\t\000\000\000\021\003\006\000\300\b\000\000\000\000\000\000@\000\000\000\000\000\000\000\024\000\000\000\021\000\n\000\360F\000\000\000\000\000\000\001\000\000\000\000\000\000\000\001\000\000\000\001\000\000\000\001\000\000\000\032\000\000\000\000\001\000\000\000\t1\000\001\000\000\000\252\372p\"\250P\345\325uY\231\301\004\000\000\000\004\000\000\000\002\000\000\000\000\000\000\000\000\000\000\000\003\000\000\000\000\000\000\000\000\000\000\000\001\000\000\000\000\000\000\000\000noquant\000noquant.kd\000__hip_cuid_e07ec4e163847883\000\000\000\000\000\000\000\000\000\000\000\000\000\000\000\000\000\000\020\000\000\000\000\000\000 \001\000\000\000\000\000\000@\020\000\000\000\000\000\000\000\000\000\000\000\000\000\000\000\000\000\000\000\000\000\000\000\000\000\000\t\000\000\000\304\000\257\000\204\000\000\000\b\000\000\000\000\000\000\000\300\000\002\300 \000\000\000\177\300\214\277\003\210\004\277\f\000\205\277\002\237\004\220\004\235\004\217\002\004\004\201\004\203\005\220\004\310\004\206\003\207\006\201\002\004\204\201\006\203\006\217\006\004\004\222\004\005\004\201\004\003\004\277\004\002\002\205\000\001\n\300\020\000\000\000\0020\213\276\034\000\310\321\000\013\005\002\200\002\"~\200\002 ~\177\300\214\277\004\237\003\201\005\237\b\201\003\237\t\220\b\237\n\220\t\233\t\217\n\233\n\217\003\t\003\201\b\n\b\201\003\205\003\220\b\205\b\220\003\210\t\203\t\b\n\222\n0\210\276\b\f\002~\200\b\215\201\002\n\f\210\f\237\f\220\001G\002~\200\002\036~\200\002\034~\200\002\032~\377\002\002\n\376\377\177O\001\017\002~\200\002\030~\200\002\026~\200\002\024~\001\005\034~\r\016\r\222\016\r\r\226\016\r\016\201\013\016\r\226\r\b\016\222\013\016\213\201\r\201\017\201\013\b\216\201\013\b\t\277\017\r\r\205\016\013\013\205\r\201\016\201\013\b\t\277\016\r\b\205\b\f\b\210\b\f\213\201\013\t\016\222\003\016\203\201\003\t\017\203\0170\203\276\003\f\004~\013\n\013\222\002\013\220\201\200\003\212\201\002G\004~\0200\202\276\020\017\t\210\t\237\t\220\377\004\004\n\376\377\177O\002\017\004~\000\003\006\300\b\000\000\000\200\000\210\276\237\000\002&\002\005\026~\n\013\n\222\013\n\n\226\013\n\013\201\002\013\n\226\n\003\013\222\002\013\202\201\n\201\021\201\002\003\213\201\002\003\t\277\021\n\n\205\013\002\002\205\n\201\013\201\002\003\t\277\013\n\002\205\002\t\002\210\002\t\222\201\022\205\021\216\200\000\006\263\200\002\022~\200\002\020~\200\002\016~\200\002\f~\200\002\n~\200\002\b~\200\002\006~\200\002\004~\232\000\205\277\006\237\002\220\205\000\004 \002\231\002\217\206\000\n \006\002\002\201\002\013\004*\002\207\023\220\204\000\006$\203\000\f p\000\002\260\204\004\004$\000\000\006\300\000\000\000\000\377\006:&p\000\000\000\021\f\bh\220\004\004&\207\f\n$\003\0014\322\003\005\000\f\036\0034\322\003\013\n\334\237\b\004\"\234\004\004 \004\005\004h\204\004\n\"\377\004\004&\360\377\377\017\005\b\210}\004\005\bj\177\300\214\277\000p\004~\002\000\351\321\005\017\b\004\210\000\n$\377\n$&\000\001\000\000\200\002&~\204\b\b$\002\000\b\322\002\001I\004\237\b\n\"\032\000\b\322\002\001\021\004\202\000\b \003\000\310\321\000\003\r\002\004\r\b*\2048\004$\003\0054\322\004\007\006\212\204\006\006$\207\002\b$\240\004\n(\b\000\212\276\b\000\213\276\037\0034\322\002\t\016\334 \0034\322\005\t\016\334\300\004\n(\377\004\004(`\000\000\000\207\000\000&\b\000\211\276\np0~!\0034\322\005\t\016\334\"\0034\322\002\t\016\334\210\000\000$j\301\200\210\377\002F~\177\000\000\000\bp,~\023\003\004~\023\003\006~\023\003\b~\023\003\n~\023\003\f~\023\003\016~\023\003\020~\023\003\022~\023\003\024~\023\003\026~\023\003\030~\023\003\032~\023\003\034~\023\003\036~\023\003 ~\023\003\"~)\000\202\277~\002\376\207\177\300\214\277\000\000\212\277\001\000\217\277\000\000\376\331\037\000\000$\177\300\214\277\000\000\254\323#G\002\000\002\f\256\323\026I\n\204\000\000\376\331 \000\000$\177\300\214\277\000\000\254\323#G\002\000\002\f\256\323\026I\n\204\000\000\376\331!\000\000$\177\300\214\277\000\000\254\323#G\002\000\002\f\256\323\026I\n\204\000\000\376\331\"\000\000$\177\300\214\277\000\000\254\323#G\002\000\002\f\256\323\026I\n\204\000\000\217\277\023\301\023\201\377::h\200\000\000\000\023\200\006\277\377\000\000h\000\b\000\000\000\000\212\277\025\000\205\277\006:\206}\000j\202\207\002 \210\276~\b\202\210\023\003$~\023\003(~\023\003*~\000\000\276\331\036\022\000\000\002#\202\276\314\377\210\277\377\000$&\000\376\377\177\024\000\b\322\032\001I\004\000\200\\\334\024\000\177$p\017\214\277\000\000\276\331\036$\000\000\302\377\202\277\022\017\022\222\020\022\200\201\000\016\000\201\2028\000$\022\000\000\322\000\n\001\004\021\002\000(\005\000\210}\000\000\304\320\004$\002\000\000j\202\206\002 \200\276\r\000\210\277\001\000\310\321\002!\005\002\377\177\002\260\001\000\377\321\002\003\n\000\024\002\350\321\022\013\000\004\237(*\"\177\300\214\277\024\000\b\322\024\0031\000\000\200l\334\024\001\177\000~\000\376\207\201$\002(\000\000\304\320\004\002\002\000\000j\202\206\002 \200\276\r\000\210\277\002\000\310\321\003!\005\002\377\177\002\260\023\000\377\321\003\005\n\000\002\002\350\321\001\013\000\004\237\004\006\"\177\300\214\277\002\000\b\322\002\0031\000\000\200l\334\002\023\177\000~\000\376\207\202$\002(\000\000\304\320\004\002\002\000\000j\202\206\002 \200\276\r\000\210\277\002\000\310\321\004!\005\002\377\177\002\260\004\000\377\321\004\005\n\000\002\002\350\321\001\013\000\004\237\004\006\"\177\300\214\277\002\000\b\322\002\0031\000\000\200l\334\002\004\177\000~\000\376\207\203$\002(\000\000\304\320\004\002\002\000\000j\202\206\002 \200\276\r\000\210\277\002\000\310\321\005!\005\002\377\177\002\260\004\000\377\321\005\005\n\000\002\002\350\321\001\013\000\004\237\004\006\"\177\300\214\277\002\000\b\322\002\0031\000\000\200l\334\002\004\177\000~\000\376\207\210$\002(\000\000\304\320\004\002\002\000\000j\202\206\002 \200\276\r\000\210\277\002\000\310\321\006!\005\002\377\177\002\260\004\000\377\321\006\005\n\000\002\002\350\321\001\013\000\004\237\004\006\"\177\300\214\277\002\000\b\322\002\0031\000\000\200l\334\002\004\177\000~\000\376\207\211$\002(\000\000\304\320\004\002\002\000\000j\202\206\002 \200\276\r\000\210\277\002\000\310\321\007!\005\002\377\177\002\260\004\000\377\321\007\005\n\000\002\002\350\321\001\013\000\004\237\004\006\"\177\300\214\277\002\000\b\322\002\0031\000\000\200l\334\002\004\177\000~\000\376\207\212$\002(\000\000\304\320\004\002\002\000\000j\202\206\002 \200\276\r\000\210\277\002\000\310\321\b!\005\002\377\177\002\260\004\000\377\321\b\005\n\000\002\002\350\321\001\013\000\004\237\004\006\"\177\300\214\277\002\000\b\322\002\0031\000\000\200l\334\002\004\177\000~\000\376\207\213$\002(\000\000\304\320\004\002\002\000\000j\202\206\002 \200\276\r\000\210\277\002\000\310\321\t!\005\002\377\177\002\260\004\000\377\321\t\005\n\000\002\002\350\321\001\013\000\004\237\004\006\"\177\300\214\277\002\000\b\322\002\0031\000\000\200l\334\002\004\177\000~\000\376\207\220$\002(\000\000\304\320\004\002\002\000\000j\202\206\002 \200\276\r\000\210\277\002\000\310\321\n!\005\002\377\177\002\260\004\000\377\321\n\005\n\000\002\002\350\321\001\013\000\004\237\004\006\"\177\300\214\277\002\000\b\322\002\0031\000\000\200l\334\002\004\177\000~\000\376\207\221$\002(\000\000\304\320\004\002\002\000\000j\202\206\002 \200\276\r\000\210\277\002\000\310\321\013!\005\002\377\177\002\260\004\000\377\321\013\005\n\000\002\002\350\321\001\013\000\004\237\004\006\"\177\300\214\277\002\000\b\322\002\0031\000\000\200l\334\002\004\177\000~\000\376\207\222$\002(\000\000\304\320\004\002\002\000\000j\202\206\002 \200\276\r\000\210\277\002\000\310\321\f!\005\002\377\177\002\260\004\000\377\321\f\005\n\000\002\002\350\321\001\013\000\004\237\004\006\"\177\300\214\277\002\000\b\322\002\0031\000\000\200l\334\002\004\177\000~\000\376\207\223$\002(\000\000\304\320\004\002\002\000\000j\202\206\002 \200\276\r\000\210\277\002\000\310\321\r!\005\002\377\177\002\260\004\000\377\321\r\005\n\000\002\002\350\321\001\013\000\004\237\004\006\"\177\300\214\277\002\000\b\322\002\0031\000\000\200l\334\002\004\177\000~\000\376\207\230$\002(\000\000\304\320\004\002\002\000\000j\202\206\002 \200\276\r\000\210\277\002\000\310\321\016!\005\002\377\177\002\260\004\000\377\321\016\005\n\000\002\002\350\321\001\013\000\004\237\004\006\"\177\300\214\277\002\000\b\322\002\0031\000\000\200l\334\002\004\177\000~\000\376\207\231$\002(\000\000\304\320\004\002\002\000\000j\202\206\002 \200\276\r\000\210\277\002\000\310\321\017!\005\002\377\177\002\260\004\000\377\321\017\005\n\000\002\002\350\321\001\013\000\004\237\004\006\"\177\300\214\277\002\000\b\322\002\0031\000\000\200l\334\002\004\177\000~\000\376\207\232$\002(\000\000\304\320\004\002\002\000\000j\202\206\002 \200\276\r\000\210\277\002\000\310\321\020!\005\002\377\177\002\260\004\000\377\321\020\005\n\000\002\002\350\321\001\013\000\004\237\004\006\"\177\300\214\277\002\000\b\322\002\0031\000\000\200l\334\002\004\177\000~\000\376\207\233$\002(\000\000\304\320\004\002\002\000\000j\200\206\000 \202\276\r\000\210\277\002\000\310\321\021!\005\002\377\177\000\260\002\000\377\321\021\005\002\000\000\000\350\321\001\013\000\004\237\000\002\"\177\300\214\277\000\000\b\322\000\0031\000\000\200l\334\000\002\177\000\000\000\201\277\000\000\200\277\000\000\200\277\000\000\200\277\000\000\200\277\000\000\200\277\000\000\200\277\000\000\200\277\000\000\200\277\000\000\200\277\000\000\200\277\000\000\200\277\000\000\200\277\000\000\200\277\000\000\200\277\000\000\200\277\000\000\200\277\000\000\200\277\000\000\200\277\000\000\200\277\000\000\200\277\000\000\200\277\000\000\200\277\000\000\200\277\000\000\200\277\000\000\200\277\000\000\200\277\000\000\200\277\000\000\200\277\000\000\200\277\000\000\200\277\000\000\200\277\000\000\200\277\000\000\200\277\000\000\200\277\000\000\200\277\000\000\200\277\000\000\200\277\000\000\200\277\000\000\200\277\000\000\200\277\000\000\200\277\000\000\200\277\000\000\200\277\000\000\200\277\000\000\200\277\000\000\200\277\000\000\200\277\000\000\200\277\000\000\200\277\000\000\200\277\000\000\200\277\000\000\200\277\000\000\200\277\000\000\200\277\000\000\200\277\000\000\200\277\000\000\200\277\000\000\200\277\000\000\200\277\000\000\200\277\000\000\200\277\000\000\200\277\000\000\200\277\000\000\200\277\000\000\200\277\000\000\200\277\000\000\200\277\000\000\200\277\000\000\200\277\000\000\200\277\000\000\200\277\000\000\200\277\000\000\200\277\000\000\200\277\000\000\200\277\000\000\200\277\000\000\200\277\000\000\200\277\000\000\200\277\000\000\200\277\000\000\200\277\000\000\200\277\000\000\200\277\000\000\200\277\000\000\200\277\000\000\200\277\000\000\200\277\000\000\200\277\000\000\200\277\000\000\200\277\000\000\200\277\000\000\200\277\000\000\200\277\000\000\200\277\000\000\200\277\000\000\200\277\000\000\200\277\000\000\200\277\000\000\200\277\000\000\200\277\000\000\200\277\000\000\200\277\000\000\200\277\000\000\200\277\000\000\200\277\000\000\200\277\000\000\200\277\000\000\200\277\000\000\200\277\000\000\200\277\000\000\200\277\000\000\200\277\000\000\200\277\000\000\200\277\000\000\200\277\000\000\200\277\000\000\200\277\000\000\200\277\000\000\200\277\000\000\200\277\000\000\200\277\000\000\200\277\000\000\200\277\000\000\200\277\000\000\200\277\000\000\200\277\000\000\200\277\000\000\200\277\000\000\200\277\000\000\200\277\000\000\200\277\000\000\200\277\000\000\200\277\000\000\200\277\000\000\200\277\000\000\200\277\000\000\200\277\000\000\200\277\000\000\200\277\000\000\200\277\000\000\200\277\000\000\200\277\000\000\200\277\000\000\200\277\000\000\200\277\000\000\200\277\000\000\200\277\000\000\200\277\000\000\200\277\000\000\200\277\000\000\200\277\000\000\200\277\000\000\200\277\000\000\200\277\000\000\200\277\000\000\200\277\000\000\200\277\000\000\200\277\000\000\200\277\000\000\200\277\000\000\200\277\000\000\200\277\000\000\200\277\000\000\200\277\000\000\200\277\000\000\200\277\000\000\200\277\000\000\200\277\000\000\200\277\000\000\200\277\000\000\200\277\000\000\200\277\000\000\200\277\000\000\200\277\000\000\200\277\000\000\200\277\000\000\200\277\000\000\200\277\000\000\200\277\000\000\200\277\000\000\200\277\000\000\200\277\000\000\200\277\000\000\200\277\000\000\200\277\000\000\200\277\000\000\200\277\000\000\200\277\000\000\200\277\000\000\200\277\000\000\200\277\000\000\200\277\000\000\200\277\000\000\200\277\000\000\200\277\000\000\200\277\000\000\200\277\000\000\200\277\000\000\200\277\000\000\200\277\000\000\200\277\000\000\200\277\000\000\200\277\000\000\200\277\000\000\200\277\000\000\200\277\000\000\200\277\000\000\200\277\000\000\200\277\000\000\200\277\000\000\200\277\000\000\200\277\000\000\200\277\000\000\200\277\000\000\200\277\000\000\200\277\000\000\200\277\000\000\200\277\000\000\200\277\000\000\200\277\000\000\200\277\000\000\200\277\000\000\200\277\000\000\200\277\000\000\200\277\000\000\200\277\000\000\200\277\000\000\200\277\000\000\200\277\000\000\200\277\000\000\200\277\000\000\200\277\000\000\200\277\000\000\200\277\000\000\200\277\000\000\200\277\000\000\200\277\000\000\200\277\000\000\200\277\000\000\200\277\000\000\200\277\000\000\200\277\000\000\200\277\000\000\200\277\000\000\200\277\000\000\200\277\000\000\200\277\000\000\200\277\000\000\200\277\000\000\200\277\000\000\200\277\000\000\200\277\000\000\200\277\000\000\200\277\000\000\200\277\000\000\200\277\000\000\200\277\000\000\200\277\000\000\200\277\000\000\200\277\000\000\200\277\000\000\200\277\000\000\200\277\000\000\200\277\000\000\200\277\000\000\200\277\000\000\200\277\006\000\000\000\000\000\000\000\320\007\000\000\000\000\000\000\013\000\000\000\000\000\000\000\030\000\000\000\000\000\000\000\005\000\000\000\000\000\000\000\200\b\000\000\000\000\000\000\n\000\000\000\000\000\000\0000\000\000\000\000\000\000\000\365\376\377o\000\000\000\0000\b\000\000\000\000\000\000\004\000\000\000\000\000\000\000X\b\000\000\000\000\000\000\000\000\000\000\000\000\000\000\000\000\000\000\000\000\000\000\000AMD clang version 20.0.0git (https://github.com/RadeonOpenCompute/llvm-project roc-7.1.0 25425 1b0eada6b0ee93e2e694c8c146d23fca90bc11c5)\000Linker: AMD LLD 20.0.0 (/longer_pathname_so_that_rpms_can_support_packaging_the_debug_info_for_all_os_profiles/src/llvm-project/llvm 1b0eada6b0ee93e2e694c8c146d23fca90bc11c5)\000\000\000\000\000\000\000\000\000\000\000\000\000\000\000\000\000\000\000\000\000\000\000\000\000\000\000\000\000\000\000\000\001\000\000\000\000\000\361\377(\000\000\000\000\000\000\000\000\000\000\000\000\000\000\000\022\000\000\000\000\000\361\377\000\000\000\000\000\000\000\000\000\000\000\000\000\000\000\000#\000\000\000\000\000\361\377\024\000\000\000\000\000\000\000\000\000\000\000\000\000\000\0009\000\000\000\000\000\361\377\000\000\000\000\000\000\000\000\000\000\000\000\000\000\000\000R\000\000\000\000\000\361\377\001\000\000\000\000\000\000\000\000\000\000\000\000\000\000\000c\000\000\000\000\000\361\377\000\000\000\000\000\000\000\000\000\000\000\000\000\000\000\000}\000\000\000\000\000\361\377\000\000\000\000\000\000\000\000\000\000\000\000\000\000\000\000\231\000\000\000\000\000\361\377\000\000\000\000\000\000\000\000\000\000\000\000\000\000\000\000\257\000\000\000\000\000\361\377\000\000\000\000\000\000\000\000\000\000\000\000\000\000\000\000\311\000\000\000\000\000\361\377\000\000\000\000\000\000\000\000\000\000\000\000\000\000\000\000\335\000\000\000\000\000\361\377\000\000\000\000\000\000\000\000\000\000\000\000\000\000\000\000\361\000\000\000\000\000\361\377\000\000\000\000\000\000\000\000\000\000\000\000\000\000\000\0004\001\000\000\000\002\b\000\2006\000\000\000\000\000\000\000\000\000\000\000\000\000\000\005\001\000\000\022\003\007\000\000\031\000\000\000\000\000\000T\t\000\000\000\000\000\000\r\001\000\000\021\003\006\000\300\b\000\000\000\000\000\000@\000\000\000\000\000\000\000\030\001\000\000\021\000\n\000\360F\000\000\000\000\000\000\001\000\000\000\000\000\000\000\000.note\000.dynsym\000.gnu.hash\000.hash\000.dynstr\000.rodata\000.text\000.dynamic\000.relro_padding\000.bss\000.AMDGPU.csdata\000.AMDGPU.gpr_maximums\000.comment\000.symtab\000.shstrtab\000.strtab\000\000noquant.num_vgpr\000noquant.num_agpr\000noquant.numbered_sgpr\000noquant.private_seg_size\000noquant.uses_vcc\000noquant.uses_flat_scratch\000noquant.has_dyn_sized_stack\000noquant.has_recursion\000noquant.has_indirect_call\000amdgpu.max_num_vgpr\000amdgpu.max_num_agpr\000amdgpu.max_num_sgpr\000noquant\000noquant.kd\000__hip_cuid_e07ec4e163847883\000_DYNAMIC\000\000\000\000\000\000\000\000\000\000\000\000\000\000\000\000\000\000\000\000\000\000\000\000\000\000\000\000\000\000\000\000\000\000\000\000\000\000\000\000\000\000\000\000\000\000\000\000\000\000\000\000\000\000\000\000\000\000\000\000\000\000\000\000\000\000\000\001\000\000\000\007\000\000\000\002\000\000\000\000\000\000\0008\002\000\000\000\000\000\0008\002\000\000\000\000\000\000\230\005\000\000\000\000\000\000\000\000\000\000\000\000\000\000\004\000\000\000\000\000\000\000\000\000\000\000\000\000\000\000\007\000\000\000\013\000\000\000\002\000\000\000\000\000\000\000\320\007\000\000\000\000\000\000\320\007\000\000\000\000\000\000`\000\000\000\000\000\000\000\005\000\000\000\001\000\000\000\b\000\000\000\000\000\000\000\030\000\000\000\000\000\000\000\017\000\000\000\366\377\377o\002\000\000\000\000\000\000\0000\b\000\000\000\000\000\0000\b\000\000\000\000\000\000(\000\000\000\000\000\000\000\002\000\000\000\000\000\000\000\b\000\000\000\000\000\000\000\000\000\000\000\000\000\000\000\031\000\000\000\005\000\000\000\002\000\000\000\000\000\000\000X\b\000\000\000\000\000\000X\b\000\000\000\000\000\000(\000\000\000\000\000\000\000\002\000\000\000\000\000\000\000\004\000\000\000\000\000\000\000\004\000\000\000\000\000\000\000\037\000\000\000\003\000\000\000\002\000\000\000\000\000\000\000\200\b\000\000\000\000\000\000\200\b\000\000\000\000\000\0000\000\000\000\000\000\000\000\000\000\000\000\000\000\000\000\001\000\000\000\000\000\000\000\000\000\000\000\000\000\000\000'\000\000\000\001\000\000\000\002\000\000\000\000\000\000\000\300\b\000\000\000\000\000\000\300\b\000\000\000\000\000\000@\000\000\000\000\000\000\000\000\000\000\000\000\000\000\000@\000\000\000\000\000\000\000\000\000\000\000\000\000\000\000/\000\000\000\001\000\000\000\006\000\000\000\000\000\000\000\000\031\000\000\000\000\000\000\000\t\000\000\000\000\000\000\200\r\000\000\000\000\000\000\000\000\000\000\000\000\000\000\000\001\000\000\000\000\000\000\000\000\000\000\000\000\000\0005\000\000\000\006\000\000\000\003\000\000\000\000\000\000\000\2006\000\000\000\000\000\000\200\026\000\000\000\000\000\000p\000\000\000\000\000\000\000\005\000\000\000\000\000\000\000\b\000\000\000\000\000\000\000\020\000\000\000\000\000\000\000>\000\000\000\b\000\000\000\003\000\000\000\000\000\000\000\3606\000\000\000\000\000\000\360\026\000\000\000\000\000\000\020\t\000\000\000\000\000\000\000\000\000\000\000\000\000\000\001\000\000\000\000\000\000\000\000\000\000\000\000\000\000\000M\000\000\000\b\000\000\000\003\000\000\000\000\000\000\000\360F\000\000\000\000\000\000\360\026\000\000\000\000\000\000\001\000\000\000\000\000\000\000\000\000\000\000\000\000\000\000\001\000\000\000\000\000\000\000\000\000\000\000\000\000\000\000R\000\000\000\001\000\000\000\000\000\000\000\000\000\000\000\000\000\000\000\000\000\000\000\360\026\000\000\000\000\000\000\000\000\000\000\000\000\000\000\000\000\000\000\000\000\000\000\001\000\000\000\000\000\000\000\000\000\000\000\000\000\000\000a\000\000\000\001\000\000\000\000\000\000\000\000\000\000\000\000\000\000\000\000\000\000\000\360\026\000\000\000\000\000\000\000\000\000\000\000\000\000\000\000\000\000\000\000\000\000\000\001\000\000\000\000\000\000\000\000\000\000\000\000\000\000\000v\000\000\000\001\000\000\0000\000\000\000\000\000\000\000\000\000\000\000\000\000\000\000\360\026\000\000\000\000\000\0009\001\000\000\000\000\000\000\000\000\000\000\000\000\000\000\001\000\000\000\000\000\000\000\001\000\000\000\000\000\000\000\177\000\000\000\002\000\000\000\000\000\000\000\000\000\000\000\000\000\000\000\000\000\000\0000\030\000\000\000\000\000\000\230\001\000\000\000\000\000\000\020\000\000\000\016\000\000\000\b\000\000\000\000\000\000\000\030\000\000\000\000\000\000\000\207\000\000\000\003\000\000\000\000\000\000\000\000\000\000\000\000\000\000\000\000\000\000\000\310\031\000\000\000\000\000\000\231\000\000\000\000\000\000\000\000\000\000\000\000\000\000\000\001\000\000\000\000\000\000\000\000\000\000\000\000\000\000\000\221\000\000\000\003\000\000\000\000\000\000\000\000\000\000\000\000\000\000\000\000\000\000\000a\032\000\000\000\000\000\000=\001\000\000\000\000\000\000\000\000\000\000\000\000\000\000\001\000\000\000\000\000\000\000\000\000\000\000\000\000\000"
	.size	.L__unnamed_2, 12256

	.type	__hip_fatbin_wrapper,@object    # @__hip_fatbin_wrapper
	.section	.hipFatBinSegment,"a",@progbits
	.p2align	3, 0x0
__hip_fatbin_wrapper:
	.long	1212764230                      # 0x48495046
	.long	1                               # 0x1
	.quad	.L__unnamed_2
	.quad	0
	.size	__hip_fatbin_wrapper, 24

	.type	__hip_gpubin_handle_e07ec4e163847883,@object # @__hip_gpubin_handle_e07ec4e163847883
	.local	__hip_gpubin_handle_e07ec4e163847883
	.comm	__hip_gpubin_handle_e07ec4e163847883,8,8
	.section	.init_array,"aw",@init_array
	.p2align	3, 0x0
	.quad	__hip_module_ctor
	.type	__hip_cuid_e07ec4e163847883,@object # @__hip_cuid_e07ec4e163847883
	.bss
	.globl	__hip_cuid_e07ec4e163847883
__hip_cuid_e07ec4e163847883:
	.byte	0                               # 0x0
	.size	__hip_cuid_e07ec4e163847883, 1

	.section	".linker-options","e",@llvm_linker_options
	.ident	"AMD clang version 20.0.0git (https://github.com/RadeonOpenCompute/llvm-project roc-7.1.0 25425 1b0eada6b0ee93e2e694c8c146d23fca90bc11c5)"
	.section	".note.GNU-stack","",@progbits
	.addrsig
	.addrsig_sym __device_stub__noquant
	.addrsig_sym __hip_module_ctor
	.addrsig_sym __hip_module_dtor
	.addrsig_sym noquant
	.addrsig_sym .L__unnamed_2
	.addrsig_sym __hip_fatbin_wrapper
	.addrsig_sym __hip_cuid_e07ec4e163847883
